
Memory Configuration

Name             Origin             Length             Attributes
FLASH            0x08000000         0x00010000         xr
RAM              0x20000000         0x00005000         xrw
*default*        0x00000000         0xffffffff

Linker script and memory map

LOAD C:\Users\PHUCLU~1\AppData\Local\Temp\ccQPoBon.o
LOAD C:\Users\PHUCLU~1\AppData\Local\Temp\ccOoavpA.o
LOAD C:\Users\PHUCLU~1\AppData\Local\Temp\ccSGtvwS.o
LOAD C:\Users\PHUCLU~1\AppData\Local\Temp\ccO4JLLd.o
LOAD C:\Users\PHUCLU~1\AppData\Local\Temp\cc8y959H.o
LOAD C:\Users\PHUCLU~1\AppData\Local\Temp\cc4QYZPf.o

.isr_vector     0x08000000       0xe4
                0x08000000                . = ALIGN (0x4)
 *(.isr_vector)
 .isr_vector    0x08000000       0xe4 C:\Users\PHUCLU~1\AppData\Local\Temp\ccSGtvwS.o
                0x08000000                g_pfnVectors
                0x080000e4                . = ALIGN (0x4)

.text           0x080000e4     0x16f0
                0x080000e4                . = ALIGN (0x4)
 *(.text)
 .text          0x080000e4      0x11c C:\Users\PHUCLU~1\AppData\Local\Temp\ccQPoBon.o
                0x080000e4                delay
                0x08000104                main
 .text          0x08000200      0x2c4 C:\Users\PHUCLU~1\AppData\Local\Temp\ccOoavpA.o
                0x08000200                Dio_ReadChannel
                0x0800024c                Dio_WriteChannel
                0x080002dc                Dio_ReadPort
                0x08000300                Dio_WritePort
                0x0800032c                Dio_ReadChannelGroup
                0x08000368                Dio_WriteChannelGroup
                0x080003c0                Dio_GetVersionInfo
                0x080003f8                Dio_FlipChannel
                0x08000470                Dio_MaskedWritePort
 .text          0x080004c4       0x68 C:\Users\PHUCLU~1\AppData\Local\Temp\ccSGtvwS.o
                0x080004c4                Test
                0x080004ca                Reset_Handler
                0x08000524                PVD_IRQHandler
                0x08000524                PendSV_Handler
                0x08000524                NMI_Handler
                0x08000524                SysTick_Handler
                0x08000524                HardFault_Handler
                0x08000524                EXTI0_IRQHandler
                0x08000524                UsageFault_Handler
                0x08000524                DebugMon_Handler
                0x08000524                TIM3_IRQHandler
                0x08000524                Default_Handler
                0x08000524                EXTI15_10_IRQHandler
                0x08000524                MemManage_Handler
                0x08000524                SVC_Handler
                0x08000524                WWDG_IRQHandler
                0x08000524                TIM2_IRQHandler
                0x08000524                EXTI1_IRQHandler
                0x08000524                BusFault_Handler
                0x08000524                USART1_IRQHandler
 .text          0x0800052c      0x808 C:\Users\PHUCLU~1\AppData\Local\Temp\ccO4JLLd.o
                0x0800052c                Port_Init
                0x08000708                Port_SetPinDirection
                0x080009b0                Port_RefreshPortDirection
                0x08000ba4                Port_GetVersionInfo
                0x08000bb6                Port_SetPinMode
 .text          0x08000d34      0x730 C:\Users\PHUCLU~1\AppData\Local\Temp\cc8y959H.o
                0x08000d34                get_CCRx
                0x08000d78                Pwm_Init
                0x080011f8                Pwm_DeInit
                0x08001214                Pwm_SetDutyCycle
                0x080012d0                Pwm_SetPeriodAndDuty
                0x08001398                Pwm_SetOutputToIdle
                0x080013fc                Pwm_GetOutputState
 .text          0x08001464      0x35c C:\Users\PHUCLU~1\AppData\Local\Temp\cc4QYZPf.o
                0x08001464                Adc_Init
                0x080015a4                Adc_SetupResultBuffer
                0x080015d4                Adc_DeInit
                0x08001610                Adc_StartGroupConversion
                0x08001770                Adc_StopGroupConversion
                0x080017a8                Adc_ReadGroup
 *(.text*)
 *(.rodata)
 .rodata        0x080017c0       0x14 C:\Users\PHUCLU~1\AppData\Local\Temp\ccQPoBon.o
                0x080017c0                Port_Configuration
 *(.rodata*)
                0x080017d4                . = ALIGN (0x4)
                0x080017d4                _etext = .

.glue_7         0x080017d4        0x0
 .glue_7        0x080017d4        0x0 linker stubs

.glue_7t        0x080017d4        0x0
 .glue_7t       0x080017d4        0x0 linker stubs

.vfp11_veneer   0x080017d4        0x0
 .vfp11_veneer  0x080017d4        0x0 linker stubs

.v4_bx          0x080017d4        0x0
 .v4_bx         0x080017d4        0x0 linker stubs

.iplt           0x080017d4        0x0
 .iplt          0x080017d4        0x0 C:\Users\PHUCLU~1\AppData\Local\Temp\ccQPoBon.o

.rel.dyn        0x080017d4        0x0
 .rel.iplt      0x080017d4        0x0 C:\Users\PHUCLU~1\AppData\Local\Temp\ccQPoBon.o

.data           0x20000000       0x6c load address 0x080017d4
                0x20000000                . = ALIGN (0x4)
                0x20000000                _sdata = .
 *(.data)
 .data          0x20000000       0x4c C:\Users\PHUCLU~1\AppData\Local\Temp\ccQPoBon.o
                0x20000000                Pwm_Configuration
                0x20000028                Adc_Configuration
 .data          0x2000004c       0x10 C:\Users\PHUCLU~1\AppData\Local\Temp\ccOoavpA.o
 .data          0x2000005c        0x0 C:\Users\PHUCLU~1\AppData\Local\Temp\ccSGtvwS.o
 .data          0x2000005c       0x10 C:\Users\PHUCLU~1\AppData\Local\Temp\ccO4JLLd.o
 .data          0x2000006c        0x0 C:\Users\PHUCLU~1\AppData\Local\Temp\cc8y959H.o
 .data          0x2000006c        0x0 C:\Users\PHUCLU~1\AppData\Local\Temp\cc4QYZPf.o
 *(.data*)
                0x2000006c                . = ALIGN (0x4)
                0x2000006c                _edata = .
                0x080017d4                _sidata = LOADADDR (.data)

.igot.plt       0x2000006c        0x0 load address 0x08001840
 .igot.plt      0x2000006c        0x0 C:\Users\PHUCLU~1\AppData\Local\Temp\ccQPoBon.o

.bss            0x2000006c       0xa8 load address 0x08001840
                0x2000006c                . = ALIGN (0x4)
                0x2000006c                _sbss = .
 *(.bss)
 .bss           0x2000006c       0x24 C:\Users\PHUCLU~1\AppData\Local\Temp\ccQPoBon.o
                0x2000006c                Count
                0x20000070                adcValueGr0
 .bss           0x20000090        0x4 C:\Users\PHUCLU~1\AppData\Local\Temp\ccOoavpA.o
 .bss           0x20000094        0x0 C:\Users\PHUCLU~1\AppData\Local\Temp\ccSGtvwS.o
 .bss           0x20000094        0x0 C:\Users\PHUCLU~1\AppData\Local\Temp\ccO4JLLd.o
 .bss           0x20000094        0x0 C:\Users\PHUCLU~1\AppData\Local\Temp\cc8y959H.o
 .bss           0x20000094       0x80 C:\Users\PHUCLU~1\AppData\Local\Temp\cc4QYZPf.o
 *(.bss*)
 *(COMMON)
                0x20000114                . = ALIGN (0x4)
                0x20000114                _ebss = .
                0x20000114                _sheap = .
                0x20005000                _estack = (ORIGIN (RAM) + LENGTH (RAM))
OUTPUT(firmware.elf elf32-littlearm)
LOAD linker stubs

.debug_info     0x00000000     0x1ab1
 .debug_info    0x00000000      0x6ba C:\Users\PHUCLU~1\AppData\Local\Temp\ccQPoBon.o
 .debug_info    0x000006ba      0x490 C:\Users\PHUCLU~1\AppData\Local\Temp\ccOoavpA.o
 .debug_info    0x00000b4a      0x15e C:\Users\PHUCLU~1\AppData\Local\Temp\ccSGtvwS.o
 .debug_info    0x00000ca8      0x3b5 C:\Users\PHUCLU~1\AppData\Local\Temp\ccO4JLLd.o
 .debug_info    0x0000105d      0x4f6 C:\Users\PHUCLU~1\AppData\Local\Temp\cc8y959H.o
 .debug_info    0x00001553      0x55e C:\Users\PHUCLU~1\AppData\Local\Temp\cc4QYZPf.o

.debug_abbrev   0x00000000      0x7d9
 .debug_abbrev  0x00000000      0x169 C:\Users\PHUCLU~1\AppData\Local\Temp\ccQPoBon.o
 .debug_abbrev  0x00000169      0x14b C:\Users\PHUCLU~1\AppData\Local\Temp\ccOoavpA.o
 .debug_abbrev  0x000002b4       0xcf C:\Users\PHUCLU~1\AppData\Local\Temp\ccSGtvwS.o
 .debug_abbrev  0x00000383      0x170 C:\Users\PHUCLU~1\AppData\Local\Temp\ccO4JLLd.o
 .debug_abbrev  0x000004f3      0x167 C:\Users\PHUCLU~1\AppData\Local\Temp\cc8y959H.o
 .debug_abbrev  0x0000065a      0x17f C:\Users\PHUCLU~1\AppData\Local\Temp\cc4QYZPf.o

.debug_aranges  0x00000000       0xc0
 .debug_aranges
                0x00000000       0x20 C:\Users\PHUCLU~1\AppData\Local\Temp\ccQPoBon.o
 .debug_aranges
                0x00000020       0x20 C:\Users\PHUCLU~1\AppData\Local\Temp\ccOoavpA.o
 .debug_aranges
                0x00000040       0x20 C:\Users\PHUCLU~1\AppData\Local\Temp\ccSGtvwS.o
 .debug_aranges
                0x00000060       0x20 C:\Users\PHUCLU~1\AppData\Local\Temp\ccO4JLLd.o
 .debug_aranges
                0x00000080       0x20 C:\Users\PHUCLU~1\AppData\Local\Temp\cc8y959H.o
 .debug_aranges
                0x000000a0       0x20 C:\Users\PHUCLU~1\AppData\Local\Temp\cc4QYZPf.o

.debug_line     0x00000000     0x13c2
 .debug_line    0x00000000      0x233 C:\Users\PHUCLU~1\AppData\Local\Temp\ccQPoBon.o
 .debug_line    0x00000233      0x2f3 C:\Users\PHUCLU~1\AppData\Local\Temp\ccOoavpA.o
 .debug_line    0x00000526      0x190 C:\Users\PHUCLU~1\AppData\Local\Temp\ccSGtvwS.o
 .debug_line    0x000006b6      0x510 C:\Users\PHUCLU~1\AppData\Local\Temp\ccO4JLLd.o
 .debug_line    0x00000bc6      0x4b4 C:\Users\PHUCLU~1\AppData\Local\Temp\cc8y959H.o
 .debug_line    0x0000107a      0x348 C:\Users\PHUCLU~1\AppData\Local\Temp\cc4QYZPf.o

.debug_str      0x00000000      0xa22
 .debug_str     0x00000000      0x53c C:\Users\PHUCLU~1\AppData\Local\Temp\ccQPoBon.o
                                0x5a0 (size before relaxing)
 .debug_str     0x0000053c      0x1d5 C:\Users\PHUCLU~1\AppData\Local\Temp\ccOoavpA.o
                                0x37a (size before relaxing)
 .debug_str     0x00000711       0x75 C:\Users\PHUCLU~1\AppData\Local\Temp\ccSGtvwS.o
                                0x1a6 (size before relaxing)
 .debug_str     0x00000786       0xc2 C:\Users\PHUCLU~1\AppData\Local\Temp\ccO4JLLd.o
                                0x32f (size before relaxing)
 .debug_str     0x00000848       0xfc C:\Users\PHUCLU~1\AppData\Local\Temp\cc8y959H.o
                                0x393 (size before relaxing)
 .debug_str     0x00000944       0xde C:\Users\PHUCLU~1\AppData\Local\Temp\cc4QYZPf.o
                                0x475 (size before relaxing)

.comment        0x00000000       0x49
 .comment       0x00000000       0x49 C:\Users\PHUCLU~1\AppData\Local\Temp\ccQPoBon.o
                                 0x4a (size before relaxing)
 .comment       0x00000049       0x4a C:\Users\PHUCLU~1\AppData\Local\Temp\ccOoavpA.o
 .comment       0x00000049       0x4a C:\Users\PHUCLU~1\AppData\Local\Temp\ccSGtvwS.o
 .comment       0x00000049       0x4a C:\Users\PHUCLU~1\AppData\Local\Temp\ccO4JLLd.o
 .comment       0x00000049       0x4a C:\Users\PHUCLU~1\AppData\Local\Temp\cc8y959H.o
 .comment       0x00000049       0x4a C:\Users\PHUCLU~1\AppData\Local\Temp\cc4QYZPf.o

.ARM.attributes
                0x00000000       0x2d
 .ARM.attributes
                0x00000000       0x2d C:\Users\PHUCLU~1\AppData\Local\Temp\ccQPoBon.o
 .ARM.attributes
                0x0000002d       0x2d C:\Users\PHUCLU~1\AppData\Local\Temp\ccOoavpA.o
 .ARM.attributes
                0x0000005a       0x2d C:\Users\PHUCLU~1\AppData\Local\Temp\ccSGtvwS.o
 .ARM.attributes
                0x00000087       0x2d C:\Users\PHUCLU~1\AppData\Local\Temp\ccO4JLLd.o
 .ARM.attributes
                0x000000b4       0x2d C:\Users\PHUCLU~1\AppData\Local\Temp\cc8y959H.o
 .ARM.attributes
                0x000000e1       0x2d C:\Users\PHUCLU~1\AppData\Local\Temp\cc4QYZPf.o

.debug_frame    0x00000000      0x520
 .debug_frame   0x00000000       0x54 C:\Users\PHUCLU~1\AppData\Local\Temp\ccQPoBon.o
 .debug_frame   0x00000054      0x178 C:\Users\PHUCLU~1\AppData\Local\Temp\ccOoavpA.o
 .debug_frame   0x000001cc       0x60 C:\Users\PHUCLU~1\AppData\Local\Temp\ccSGtvwS.o
 .debug_frame   0x0000022c       0xec C:\Users\PHUCLU~1\AppData\Local\Temp\ccO4JLLd.o
 .debug_frame   0x00000318      0x110 C:\Users\PHUCLU~1\AppData\Local\Temp\cc8y959H.o
 .debug_frame   0x00000428       0xf8 C:\Users\PHUCLU~1\AppData\Local\Temp\cc4QYZPf.o
