
Memory Configuration

Name             Origin             Length             Attributes
FLASH            0x08000000         0x00010000         xr
RAM              0x20000000         0x00005000         xrw
*default*        0x00000000         0xffffffff

Linker script and memory map

LOAD C:\Users\PHUCLU~1\AppData\Local\Temp\cc8K2MiC.o
LOAD C:\Users\PHUCLU~1\AppData\Local\Temp\cck2L5Mq.o
LOAD C:\Users\PHUCLU~1\AppData\Local\Temp\ccWuu0ik.o
LOAD C:\Users\PHUCLU~1\AppData\Local\Temp\cc22Zk6g.o
LOAD C:\Users\PHUCLU~1\AppData\Local\Temp\cc08wuwm.o
LOAD C:\Users\PHUCLU~1\AppData\Local\Temp\ccA6V2Zt.o
LOAD C:\Users\PHUCLU~1\AppData\Local\Temp\ccJt3JJw.o
LOAD C:\Users\PHUCLU~1\AppData\Local\Temp\cce85Q2D.o
LOAD C:\Users\PHUCLU~1\AppData\Local\Temp\ccftczlU.o
LOAD C:\Users\PHUCLU~1\AppData\Local\Temp\cco6VlCo.o
LOAD C:\Users\PHUCLU~1\AppData\Local\Temp\ccd5N25V.o
LOAD C:\Users\PHUCLU~1\AppData\Local\Temp\ccWAgd6y.o

.isr_vector     0x08000000       0xe4
                0x08000000                . = ALIGN (0x4)
 *(.isr_vector)
 .isr_vector    0x08000000       0xe4 C:\Users\PHUCLU~1\AppData\Local\Temp\cc8K2MiC.o
                0x08000000                g_pfnVectors
                0x080000e4                . = ALIGN (0x4)

.text           0x080000e4     0x2324
                0x080000e4                . = ALIGN (0x4)
 *(.text)
 .text          0x080000e4       0x64 C:\Users\PHUCLU~1\AppData\Local\Temp\cc8K2MiC.o
                0x080000e4                Reset_Handler
                0x08000140                HardFault_Handler
                0x08000140                SysTick_Handler
                0x08000140                PVD_IRQHandler
                0x08000140                PendSV_Handler
                0x08000140                NMI_Handler
                0x08000140                EXTI0_IRQHandler
                0x08000140                UsageFault_Handler
                0x08000140                DebugMon_Handler
                0x08000140                TIM3_IRQHandler
                0x08000140                Default_Handler
                0x08000140                EXTI15_10_IRQHandler
                0x08000140                MemManage_Handler
                0x08000140                SVC_Handler
                0x08000140                WWDG_IRQHandler
                0x08000140                TIM2_IRQHandler
                0x08000140                EXTI1_IRQHandler
                0x08000140                BusFault_Handler
                0x08000140                USART1_IRQHandler
 .text          0x08000148       0x90 C:\Users\PHUCLU~1\AppData\Local\Temp\cck2L5Mq.o
                0x08000148                delay
                0x08000168                main
 .text          0x080001d8      0x2c8 C:\Users\PHUCLU~1\AppData\Local\Temp\ccWuu0ik.o
                0x080001d8                Dio_ReadChannel
                0x08000224                Dio_WriteChannel
                0x080002b4                Dio_ReadPort
                0x080002d8                Dio_WritePort
                0x08000304                Dio_ReadChannelGroup
                0x08000340                Dio_WriteChannelGroup
                0x08000398                Dio_GetVersionInfo
                0x080003d0                Dio_FlipChannel
                0x0800044c                Dio_MaskedWritePort
 .text          0x080004a0      0x808 C:\Users\PHUCLU~1\AppData\Local\Temp\cc22Zk6g.o
                0x080004a0                Port_Init
                0x0800067c                Port_SetPinDirection
                0x08000924                Port_RefreshPortDirection
                0x08000b18                Port_GetVersionInfo
                0x08000b2a                Port_SetPinMode
 .text          0x08000ca8      0x730 C:\Users\PHUCLU~1\AppData\Local\Temp\cc08wuwm.o
                0x08000cec                Pwm_Init
                0x0800116c                Pwm_DeInit
                0x08001188                Pwm_SetDutyCycle
                0x08001244                Pwm_SetPeriodAndDuty
                0x0800130c                Pwm_SetOutputToIdle
                0x08001370                Pwm_GetOutputState
 .text          0x080013d8        0x0 C:\Users\PHUCLU~1\AppData\Local\Temp\ccA6V2Zt.o
 .text          0x080013d8      0xc14 C:\Users\PHUCLU~1\AppData\Local\Temp\ccJt3JJw.o
                0x08001458                Adc_Init
                0x0800155c                Adc_DeInit
                0x08001598                Adc_SetupResultBuffer
                0x080016ac                Adc_StartGroupConversion
                0x08001c8c                Adc_StopGroupConversion
                0x08001cd0                Adc_ReadGroup
                0x08001da0                Adc_EnableHardwareTrigger
                0x08001e2c                Adc_DisableHardwareTrigger
                0x08001eb4                Adc_EnableGroupNotification
                0x08001f40                Adc_DisableGroupNotification
                0x08001fcc                Adc_GetGroupStatus
 .text          0x08001fec        0x0 C:\Users\PHUCLU~1\AppData\Local\Temp\cce85Q2D.o
 .text          0x08001fec      0x2f8 C:\Users\PHUCLU~1\AppData\Local\Temp\ccftczlU.o
                0x08001fec                Mcu_Init
                0x0800207c                Mcu_InitClock
                0x08002210                Mcu_InitRamSection
                0x08002226                Mcu_SetMode
 .text          0x080022e4       0x24 C:\Users\PHUCLU~1\AppData\Local\Temp\cco6VlCo.o
                0x080022e4                ADC1_2_IRQHandler
 .text          0x08002308        0x0 C:\Users\PHUCLU~1\AppData\Local\Temp\ccd5N25V.o
 .text          0x08002308       0xb8 C:\Users\PHUCLU~1\AppData\Local\Temp\ccWAgd6y.o
                0x08002308                IoHwAb_InitIoHwAbSensor
                0x08002334                IoHwAb_InitIoHwAbActuator
                0x08002360                IoHwAb_Dcm_Sensor
                0x08002398                IoHwAb_Dcm_Actuator
 *(.text*)
 *(.rodata)
 .rodata        0x080023c0       0x1e C:\Users\PHUCLU~1\AppData\Local\Temp\cck2L5Mq.o
                0x080023c0                Port_Configuration
 *fill*         0x080023de        0x2 
 .rodata        0x080023e0       0x28 C:\Users\PHUCLU~1\AppData\Local\Temp\cce85Q2D.o
                0x080023e0                Adc_Configuration
 *(.rodata*)
                0x08002408                . = ALIGN (0x4)
                0x08002408                _etext = .

.glue_7         0x08002408        0x0
 .glue_7        0x08002408        0x0 linker stubs

.glue_7t        0x08002408        0x0
 .glue_7t       0x08002408        0x0 linker stubs

.vfp11_veneer   0x08002408        0x0
 .vfp11_veneer  0x08002408        0x0 linker stubs

.v4_bx          0x08002408        0x0
 .v4_bx         0x08002408        0x0 linker stubs

.iplt           0x08002408        0x0
 .iplt          0x08002408        0x0 C:\Users\PHUCLU~1\AppData\Local\Temp\cc8K2MiC.o

.rel.dyn        0x08002408        0x0
 .rel.iplt      0x08002408        0x0 C:\Users\PHUCLU~1\AppData\Local\Temp\cc8K2MiC.o

.data           0x20000000       0x6c load address 0x08002408
                0x20000000                . = ALIGN (0x4)
                0x20000000                _sdata = .
 *(.data)
 .data          0x20000000        0x0 C:\Users\PHUCLU~1\AppData\Local\Temp\cc8K2MiC.o
 .data          0x20000000       0x28 C:\Users\PHUCLU~1\AppData\Local\Temp\cck2L5Mq.o
                0x20000000                PrehiralConfig
                0x2000000c                Mcu_Clock_Configuration
                0x20000014                Mcu_Configuration
                0x2000001c                Dio_Configuration
                0x20000020                SensorConfigType
                0x20000024                ActuatorConfigType
 .data          0x20000028       0x10 C:\Users\PHUCLU~1\AppData\Local\Temp\ccWuu0ik.o
 .data          0x20000038       0x10 C:\Users\PHUCLU~1\AppData\Local\Temp\cc22Zk6g.o
 .data          0x20000048        0x0 C:\Users\PHUCLU~1\AppData\Local\Temp\cc08wuwm.o
 .data          0x20000048        0xa C:\Users\PHUCLU~1\AppData\Local\Temp\ccA6V2Zt.o
                0x20000048                Pwm_Configuration
 *fill*         0x20000052        0x2 
 .data          0x20000054        0x8 C:\Users\PHUCLU~1\AppData\Local\Temp\ccJt3JJw.o
 .data          0x2000005c        0xe C:\Users\PHUCLU~1\AppData\Local\Temp\cce85Q2D.o
 .data          0x2000006a        0x0 C:\Users\PHUCLU~1\AppData\Local\Temp\ccftczlU.o
 .data          0x2000006a        0x0 C:\Users\PHUCLU~1\AppData\Local\Temp\cco6VlCo.o
 .data          0x2000006a        0x0 C:\Users\PHUCLU~1\AppData\Local\Temp\ccd5N25V.o
 .data          0x2000006a        0x0 C:\Users\PHUCLU~1\AppData\Local\Temp\ccWAgd6y.o
 *(.data*)
                0x2000006c                . = ALIGN (0x4)
 *fill*         0x2000006a        0x2 
                0x2000006c                _edata = .
                0x08002408                _sidata = LOADADDR (.data)

.igot.plt       0x2000006c        0x0 load address 0x08002474
 .igot.plt      0x2000006c        0x0 C:\Users\PHUCLU~1\AppData\Local\Temp\cc8K2MiC.o

.bss            0x2000006c       0x30 load address 0x08002474
                0x2000006c                . = ALIGN (0x4)
                0x2000006c                _sbss = .
 *(.bss)
 .bss           0x2000006c        0x0 C:\Users\PHUCLU~1\AppData\Local\Temp\cc8K2MiC.o
 .bss           0x2000006c        0x9 C:\Users\PHUCLU~1\AppData\Local\Temp\cck2L5Mq.o
                0x2000006c                Count
                0x20000070                adcValue
                0x20000074                status
 *fill*         0x20000075        0x3 
 .bss           0x20000078        0x4 C:\Users\PHUCLU~1\AppData\Local\Temp\ccWuu0ik.o
 .bss           0x2000007c        0x0 C:\Users\PHUCLU~1\AppData\Local\Temp\cc22Zk6g.o
 .bss           0x2000007c        0x0 C:\Users\PHUCLU~1\AppData\Local\Temp\cc08wuwm.o
 .bss           0x2000007c        0x0 C:\Users\PHUCLU~1\AppData\Local\Temp\ccA6V2Zt.o
 .bss           0x2000007c        0xc C:\Users\PHUCLU~1\AppData\Local\Temp\ccJt3JJw.o
 .bss           0x20000088       0x10 C:\Users\PHUCLU~1\AppData\Local\Temp\cce85Q2D.o
                0x20000090                adcValue0
                0x20000094                adcValue1
 .bss           0x20000098        0x0 C:\Users\PHUCLU~1\AppData\Local\Temp\ccftczlU.o
 .bss           0x20000098        0x1 C:\Users\PHUCLU~1\AppData\Local\Temp\cco6VlCo.o
                0x20000098                SystemFlags
 .bss           0x20000099        0x0 C:\Users\PHUCLU~1\AppData\Local\Temp\ccd5N25V.o
 .bss           0x20000099        0x0 C:\Users\PHUCLU~1\AppData\Local\Temp\ccWAgd6y.o
 *(.bss*)
 *(COMMON)
                0x2000009c                . = ALIGN (0x4)
 *fill*         0x20000099        0x3 
                0x2000009c                _ebss = .
                0x2000009c                _sheap = .
                0x20005000                _estack = (ORIGIN (RAM) + LENGTH (RAM))
OUTPUT(firmware.elf elf32-littlearm)
LOAD linker stubs

.debug_info     0x00000000     0x3107
 .debug_info    0x00000000      0x14c C:\Users\PHUCLU~1\AppData\Local\Temp\cc8K2MiC.o
 .debug_info    0x0000014c      0x4c2 C:\Users\PHUCLU~1\AppData\Local\Temp\cck2L5Mq.o
 .debug_info    0x0000060e      0x490 C:\Users\PHUCLU~1\AppData\Local\Temp\ccWuu0ik.o
 .debug_info    0x00000a9e      0x3b5 C:\Users\PHUCLU~1\AppData\Local\Temp\cc22Zk6g.o
 .debug_info    0x00000e53      0x4f6 C:\Users\PHUCLU~1\AppData\Local\Temp\cc08wuwm.o
 .debug_info    0x00001349      0x1ca C:\Users\PHUCLU~1\AppData\Local\Temp\ccA6V2Zt.o
 .debug_info    0x00001513      0xb7d C:\Users\PHUCLU~1\AppData\Local\Temp\ccJt3JJw.o
 .debug_info    0x00002090      0x398 C:\Users\PHUCLU~1\AppData\Local\Temp\cce85Q2D.o
 .debug_info    0x00002428      0x521 C:\Users\PHUCLU~1\AppData\Local\Temp\ccftczlU.o
 .debug_info    0x00002949      0x225 C:\Users\PHUCLU~1\AppData\Local\Temp\cco6VlCo.o
 .debug_info    0x00002b6e       0x79 C:\Users\PHUCLU~1\AppData\Local\Temp\ccd5N25V.o
 .debug_info    0x00002be7      0x520 C:\Users\PHUCLU~1\AppData\Local\Temp\ccWAgd6y.o

.debug_abbrev   0x00000000      0xcb2
 .debug_abbrev  0x00000000       0xcf C:\Users\PHUCLU~1\AppData\Local\Temp\cc8K2MiC.o
 .debug_abbrev  0x000000cf      0x13f C:\Users\PHUCLU~1\AppData\Local\Temp\cck2L5Mq.o
 .debug_abbrev  0x0000020e      0x14b C:\Users\PHUCLU~1\AppData\Local\Temp\ccWuu0ik.o
 .debug_abbrev  0x00000359      0x170 C:\Users\PHUCLU~1\AppData\Local\Temp\cc22Zk6g.o
 .debug_abbrev  0x000004c9      0x165 C:\Users\PHUCLU~1\AppData\Local\Temp\cc08wuwm.o
 .debug_abbrev  0x0000062e       0xac C:\Users\PHUCLU~1\AppData\Local\Temp\ccA6V2Zt.o
 .debug_abbrev  0x000006da      0x236 C:\Users\PHUCLU~1\AppData\Local\Temp\ccJt3JJw.o
 .debug_abbrev  0x00000910       0xc6 C:\Users\PHUCLU~1\AppData\Local\Temp\cce85Q2D.o
 .debug_abbrev  0x000009d6      0x11a C:\Users\PHUCLU~1\AppData\Local\Temp\ccftczlU.o
 .debug_abbrev  0x00000af0       0xaf C:\Users\PHUCLU~1\AppData\Local\Temp\cco6VlCo.o
 .debug_abbrev  0x00000b9f       0x26 C:\Users\PHUCLU~1\AppData\Local\Temp\ccd5N25V.o
 .debug_abbrev  0x00000bc5       0xed C:\Users\PHUCLU~1\AppData\Local\Temp\ccWAgd6y.o

.debug_aranges  0x00000000      0x168
 .debug_aranges
                0x00000000       0x20 C:\Users\PHUCLU~1\AppData\Local\Temp\cc8K2MiC.o
 .debug_aranges
                0x00000020       0x20 C:\Users\PHUCLU~1\AppData\Local\Temp\cck2L5Mq.o
 .debug_aranges
                0x00000040       0x20 C:\Users\PHUCLU~1\AppData\Local\Temp\ccWuu0ik.o
 .debug_aranges
                0x00000060       0x20 C:\Users\PHUCLU~1\AppData\Local\Temp\cc22Zk6g.o
 .debug_aranges
                0x00000080       0x20 C:\Users\PHUCLU~1\AppData\Local\Temp\cc08wuwm.o
 .debug_aranges
                0x000000a0       0x18 C:\Users\PHUCLU~1\AppData\Local\Temp\ccA6V2Zt.o
 .debug_aranges
                0x000000b8       0x20 C:\Users\PHUCLU~1\AppData\Local\Temp\ccJt3JJw.o
 .debug_aranges
                0x000000d8       0x18 C:\Users\PHUCLU~1\AppData\Local\Temp\cce85Q2D.o
 .debug_aranges
                0x000000f0       0x20 C:\Users\PHUCLU~1\AppData\Local\Temp\ccftczlU.o
 .debug_aranges
                0x00000110       0x20 C:\Users\PHUCLU~1\AppData\Local\Temp\cco6VlCo.o
 .debug_aranges
                0x00000130       0x18 C:\Users\PHUCLU~1\AppData\Local\Temp\ccd5N25V.o
 .debug_aranges
                0x00000148       0x20 C:\Users\PHUCLU~1\AppData\Local\Temp\ccWAgd6y.o

.debug_line     0x00000000     0x2211
 .debug_line    0x00000000      0x186 C:\Users\PHUCLU~1\AppData\Local\Temp\cc8K2MiC.o
 .debug_line    0x00000186      0x253 C:\Users\PHUCLU~1\AppData\Local\Temp\cck2L5Mq.o
 .debug_line    0x000003d9      0x2e9 C:\Users\PHUCLU~1\AppData\Local\Temp\ccWuu0ik.o
 .debug_line    0x000006c2      0x50e C:\Users\PHUCLU~1\AppData\Local\Temp\cc22Zk6g.o
 .debug_line    0x00000bd0      0x4c0 C:\Users\PHUCLU~1\AppData\Local\Temp\cc08wuwm.o
 .debug_line    0x00001090      0x157 C:\Users\PHUCLU~1\AppData\Local\Temp\ccA6V2Zt.o
 .debug_line    0x000011e7      0x826 C:\Users\PHUCLU~1\AppData\Local\Temp\ccJt3JJw.o
 .debug_line    0x00001a0d      0x19b C:\Users\PHUCLU~1\AppData\Local\Temp\cce85Q2D.o
 .debug_line    0x00001ba8      0x2af C:\Users\PHUCLU~1\AppData\Local\Temp\ccftczlU.o
 .debug_line    0x00001e57      0x187 C:\Users\PHUCLU~1\AppData\Local\Temp\cco6VlCo.o
 .debug_line    0x00001fde       0x1d C:\Users\PHUCLU~1\AppData\Local\Temp\ccd5N25V.o
 .debug_line    0x00001ffb      0x216 C:\Users\PHUCLU~1\AppData\Local\Temp\ccWAgd6y.o

.debug_str      0x00000000     0x1312
 .debug_str     0x00000000      0x164 C:\Users\PHUCLU~1\AppData\Local\Temp\cc8K2MiC.o
                                0x1a1 (size before relaxing)
 .debug_str     0x00000164      0x2d9 C:\Users\PHUCLU~1\AppData\Local\Temp\cck2L5Mq.o
                                0x436 (size before relaxing)
 .debug_str     0x0000043d      0x1b0 C:\Users\PHUCLU~1\AppData\Local\Temp\ccWuu0ik.o
                                0x378 (size before relaxing)
 .debug_str     0x000005ed       0xb6 C:\Users\PHUCLU~1\AppData\Local\Temp\cc22Zk6g.o
                                0x32d (size before relaxing)
 .debug_str     0x000006a3      0x20d C:\Users\PHUCLU~1\AppData\Local\Temp\cc08wuwm.o
                                0x391 (size before relaxing)
 .debug_str     0x000008b0       0x32 C:\Users\PHUCLU~1\AppData\Local\Temp\ccA6V2Zt.o
                                0x2a4 (size before relaxing)
 .debug_str     0x000008e2      0x7ba C:\Users\PHUCLU~1\AppData\Local\Temp\ccJt3JJw.o
                                0x9ba (size before relaxing)
 .debug_str     0x0000109c       0x9f C:\Users\PHUCLU~1\AppData\Local\Temp\cce85Q2D.o
                                0x438 (size before relaxing)
 .debug_str     0x0000113b       0xde C:\Users\PHUCLU~1\AppData\Local\Temp\ccftczlU.o
                                0x398 (size before relaxing)
 .debug_str     0x00001219       0x59 C:\Users\PHUCLU~1\AppData\Local\Temp\cco6VlCo.o
                                0x206 (size before relaxing)
 .debug_str     0x00001272       0x17 C:\Users\PHUCLU~1\AppData\Local\Temp\ccd5N25V.o
                                0x146 (size before relaxing)
 .debug_str     0x00001289       0x89 C:\Users\PHUCLU~1\AppData\Local\Temp\ccWAgd6y.o
                                0x5bd (size before relaxing)

.comment        0x00000000       0x49
 .comment       0x00000000       0x49 C:\Users\PHUCLU~1\AppData\Local\Temp\cc8K2MiC.o
                                 0x4a (size before relaxing)
 .comment       0x00000049       0x4a C:\Users\PHUCLU~1\AppData\Local\Temp\cck2L5Mq.o
 .comment       0x00000049       0x4a C:\Users\PHUCLU~1\AppData\Local\Temp\ccWuu0ik.o
 .comment       0x00000049       0x4a C:\Users\PHUCLU~1\AppData\Local\Temp\cc22Zk6g.o
 .comment       0x00000049       0x4a C:\Users\PHUCLU~1\AppData\Local\Temp\cc08wuwm.o
 .comment       0x00000049       0x4a C:\Users\PHUCLU~1\AppData\Local\Temp\ccA6V2Zt.o
 .comment       0x00000049       0x4a C:\Users\PHUCLU~1\AppData\Local\Temp\ccJt3JJw.o
 .comment       0x00000049       0x4a C:\Users\PHUCLU~1\AppData\Local\Temp\cce85Q2D.o
 .comment       0x00000049       0x4a C:\Users\PHUCLU~1\AppData\Local\Temp\ccftczlU.o
 .comment       0x00000049       0x4a C:\Users\PHUCLU~1\AppData\Local\Temp\cco6VlCo.o
 .comment       0x00000049       0x4a C:\Users\PHUCLU~1\AppData\Local\Temp\ccd5N25V.o
 .comment       0x00000049       0x4a C:\Users\PHUCLU~1\AppData\Local\Temp\ccWAgd6y.o

.ARM.attributes
                0x00000000       0x2d
 .ARM.attributes
                0x00000000       0x2d C:\Users\PHUCLU~1\AppData\Local\Temp\cc8K2MiC.o
 .ARM.attributes
                0x0000002d       0x2d C:\Users\PHUCLU~1\AppData\Local\Temp\cck2L5Mq.o
 .ARM.attributes
                0x0000005a       0x2d C:\Users\PHUCLU~1\AppData\Local\Temp\ccWuu0ik.o
 .ARM.attributes
                0x00000087       0x2d C:\Users\PHUCLU~1\AppData\Local\Temp\cc22Zk6g.o
 .ARM.attributes
                0x000000b4       0x2d C:\Users\PHUCLU~1\AppData\Local\Temp\cc08wuwm.o
 .ARM.attributes
                0x000000e1       0x2d C:\Users\PHUCLU~1\AppData\Local\Temp\ccA6V2Zt.o
 .ARM.attributes
                0x0000010e       0x2d C:\Users\PHUCLU~1\AppData\Local\Temp\ccJt3JJw.o
 .ARM.attributes
                0x0000013b       0x2d C:\Users\PHUCLU~1\AppData\Local\Temp\cce85Q2D.o
 .ARM.attributes
                0x00000168       0x2d C:\Users\PHUCLU~1\AppData\Local\Temp\ccftczlU.o
 .ARM.attributes
                0x00000195       0x2d C:\Users\PHUCLU~1\AppData\Local\Temp\cco6VlCo.o
 .ARM.attributes
                0x000001c2       0x2d C:\Users\PHUCLU~1\AppData\Local\Temp\ccd5N25V.o
 .ARM.attributes
                0x000001ef       0x2d C:\Users\PHUCLU~1\AppData\Local\Temp\ccWAgd6y.o

.debug_frame    0x00000000      0x7a0
 .debug_frame   0x00000000       0x48 C:\Users\PHUCLU~1\AppData\Local\Temp\cc8K2MiC.o
 .debug_frame   0x00000048       0x54 C:\Users\PHUCLU~1\AppData\Local\Temp\cck2L5Mq.o
 .debug_frame   0x0000009c      0x178 C:\Users\PHUCLU~1\AppData\Local\Temp\ccWuu0ik.o
 .debug_frame   0x00000214       0xec C:\Users\PHUCLU~1\AppData\Local\Temp\cc22Zk6g.o
 .debug_frame   0x00000300      0x110 C:\Users\PHUCLU~1\AppData\Local\Temp\cc08wuwm.o
 .debug_frame   0x00000410      0x208 C:\Users\PHUCLU~1\AppData\Local\Temp\ccJt3JJw.o
 .debug_frame   0x00000618       0xb0 C:\Users\PHUCLU~1\AppData\Local\Temp\ccftczlU.o
 .debug_frame   0x000006c8       0x38 C:\Users\PHUCLU~1\AppData\Local\Temp\cco6VlCo.o
 .debug_frame   0x00000700       0xa0 C:\Users\PHUCLU~1\AppData\Local\Temp\ccWAgd6y.o
