
Memory Configuration

Name             Origin             Length             Attributes
FLASH            0x08000000         0x00010000         xr
RAM              0x20000000         0x00005000         xrw
*default*        0x00000000         0xffffffff

Linker script and memory map

LOAD C:\Users\PHUCLU~1\AppData\Local\Temp\cc8GaZLt.o
LOAD C:\Users\PHUCLU~1\AppData\Local\Temp\ccccY9qJ.o
LOAD C:\Users\PHUCLU~1\AppData\Local\Temp\ccC45PK3.o
LOAD C:\Users\PHUCLU~1\AppData\Local\Temp\ccKtz85o.o
LOAD C:\Users\PHUCLU~1\AppData\Local\Temp\ccwHAI1O.o
LOAD C:\Users\PHUCLU~1\AppData\Local\Temp\ccuha6Pl.o
LOAD C:\Users\PHUCLU~1\AppData\Local\Temp\ccglwz5W.o
LOAD C:\Users\PHUCLU~1\AppData\Local\Temp\cce7fNdz.o
LOAD C:\Users\PHUCLU~1\AppData\Local\Temp\ccOkSOQi.o
LOAD C:\Users\PHUCLU~1\AppData\Local\Temp\ccq9ev37.o
LOAD C:\Users\PHUCLU~1\AppData\Local\Temp\ccgPDYWX.o
LOAD C:\Users\PHUCLU~1\AppData\Local\Temp\ccGtOnDT.o
LOAD C:\Users\PHUCLU~1\AppData\Local\Temp\ccsda8gU.o
LOAD C:\Users\PHUCLU~1\AppData\Local\Temp\ccoQREgZ.o
LOAD C:\Users\PHUCLU~1\AppData\Local\Temp\ccwV6iw5.o
LOAD C:\Users\PHUCLU~1\AppData\Local\Temp\ccpck3Z5.o

.isr_vector     0x08000000       0xe4
                0x08000000                . = ALIGN (0x4)
 *(.isr_vector)
 .isr_vector    0x08000000       0xe4 C:\Users\PHUCLU~1\AppData\Local\Temp\cc8GaZLt.o
                0x08000000                g_pfnVectors
                0x080000e4                . = ALIGN (0x4)

.text           0x080000e4     0x2334
                0x080000e4                . = ALIGN (0x4)
 *(.text)
 .text          0x080000e4       0x64 C:\Users\PHUCLU~1\AppData\Local\Temp\cc8GaZLt.o
                0x080000e4                Reset_Handler
                0x08000140                HardFault_Handler
                0x08000140                SysTick_Handler
                0x08000140                PVD_IRQHandler
                0x08000140                PendSV_Handler
                0x08000140                NMI_Handler
                0x08000140                EXTI0_IRQHandler
                0x08000140                UsageFault_Handler
                0x08000140                DebugMon_Handler
                0x08000140                TIM3_IRQHandler
                0x08000140                Default_Handler
                0x08000140                EXTI15_10_IRQHandler
                0x08000140                MemManage_Handler
                0x08000140                SVC_Handler
                0x08000140                WWDG_IRQHandler
                0x08000140                TIM2_IRQHandler
                0x08000140                EXTI1_IRQHandler
                0x08000140                BusFault_Handler
                0x08000140                USART1_IRQHandler
 .text          0x08000148       0xa0 C:\Users\PHUCLU~1\AppData\Local\Temp\ccccY9qJ.o
                0x08000148                delay
                0x08000168                main
 .text          0x080001e8      0x2c8 C:\Users\PHUCLU~1\AppData\Local\Temp\ccC45PK3.o
                0x080001e8                Dio_ReadChannel
                0x08000234                Dio_WriteChannel
                0x080002c4                Dio_ReadPort
                0x080002e8                Dio_WritePort
                0x08000314                Dio_ReadChannelGroup
                0x08000350                Dio_WriteChannelGroup
                0x080003a8                Dio_GetVersionInfo
                0x080003e0                Dio_FlipChannel
                0x0800045c                Dio_MaskedWritePort
 .text          0x080004b0        0x0 C:\Users\PHUCLU~1\AppData\Local\Temp\ccKtz85o.o
 .text          0x080004b0      0x808 C:\Users\PHUCLU~1\AppData\Local\Temp\ccwHAI1O.o
                0x080004b0                Port_Init
                0x0800068c                Port_SetPinDirection
                0x08000934                Port_RefreshPortDirection
                0x08000b28                Port_GetVersionInfo
                0x08000b3a                Port_SetPinMode
 .text          0x08000cb8        0x0 C:\Users\PHUCLU~1\AppData\Local\Temp\ccuha6Pl.o
 .text          0x08000cb8      0x730 C:\Users\PHUCLU~1\AppData\Local\Temp\ccglwz5W.o
                0x08000cfc                Pwm_Init
                0x0800117c                Pwm_DeInit
                0x08001198                Pwm_SetDutyCycle
                0x08001254                Pwm_SetPeriodAndDuty
                0x0800131c                Pwm_SetOutputToIdle
                0x08001380                Pwm_GetOutputState
 .text          0x080013e8        0x0 C:\Users\PHUCLU~1\AppData\Local\Temp\cce7fNdz.o
 .text          0x080013e8      0xc14 C:\Users\PHUCLU~1\AppData\Local\Temp\ccOkSOQi.o
                0x08001468                Adc_Init
                0x0800156c                Adc_DeInit
                0x080015a8                Adc_SetupResultBuffer
                0x080016bc                Adc_StartGroupConversion
                0x08001c9c                Adc_StopGroupConversion
                0x08001ce0                Adc_ReadGroup
                0x08001db0                Adc_EnableHardwareTrigger
                0x08001e3c                Adc_DisableHardwareTrigger
                0x08001ec4                Adc_EnableGroupNotification
                0x08001f50                Adc_DisableGroupNotification
                0x08001fdc                Adc_GetGroupStatus
 .text          0x08001ffc        0x0 C:\Users\PHUCLU~1\AppData\Local\Temp\ccq9ev37.o
 .text          0x08001ffc      0x2f8 C:\Users\PHUCLU~1\AppData\Local\Temp\ccgPDYWX.o
                0x08001ffc                Mcu_Init
                0x0800208c                Mcu_InitClock
                0x08002220                Mcu_InitRamSection
                0x08002236                Mcu_SetMode
 .text          0x080022f4        0x0 C:\Users\PHUCLU~1\AppData\Local\Temp\ccGtOnDT.o
 .text          0x080022f4       0x24 C:\Users\PHUCLU~1\AppData\Local\Temp\ccsda8gU.o
                0x080022f4                ADC1_2_IRQHandler
 .text          0x08002318        0x0 C:\Users\PHUCLU~1\AppData\Local\Temp\ccoQREgZ.o
 .text          0x08002318       0xb8 C:\Users\PHUCLU~1\AppData\Local\Temp\ccwV6iw5.o
                0x08002318                IoHwAb_InitIoHwAbSensor
                0x08002344                IoHwAb_InitIoHwAbActuator
                0x08002370                IoHwAb_Dcm_Sensor
                0x080023a8                IoHwAb_Dcm_Actuator
 .text          0x080023d0        0x0 C:\Users\PHUCLU~1\AppData\Local\Temp\ccpck3Z5.o
 *(.text*)
 *(.rodata)
 .rodata        0x080023d0       0x1e C:\Users\PHUCLU~1\AppData\Local\Temp\ccuha6Pl.o
                0x080023d0                Port_Configuration
 *fill*         0x080023ee        0x2 
 .rodata        0x080023f0       0x28 C:\Users\PHUCLU~1\AppData\Local\Temp\ccq9ev37.o
                0x080023f0                Adc_Configuration
 *(.rodata*)
                0x08002418                . = ALIGN (0x4)
                0x08002418                _etext = .

.glue_7         0x08002418        0x0
 .glue_7        0x08002418        0x0 linker stubs

.glue_7t        0x08002418        0x0
 .glue_7t       0x08002418        0x0 linker stubs

.vfp11_veneer   0x08002418        0x0
 .vfp11_veneer  0x08002418        0x0 linker stubs

.v4_bx          0x08002418        0x0
 .v4_bx         0x08002418        0x0 linker stubs

.iplt           0x08002418        0x0
 .iplt          0x08002418        0x0 C:\Users\PHUCLU~1\AppData\Local\Temp\cc8GaZLt.o

.rel.dyn        0x08002418        0x0
 .rel.iplt      0x08002418        0x0 C:\Users\PHUCLU~1\AppData\Local\Temp\cc8GaZLt.o

.data           0x20000000       0x74 load address 0x08002418
                0x20000000                . = ALIGN (0x4)
                0x20000000                _sdata = .
 *(.data)
 .data          0x20000000        0x0 C:\Users\PHUCLU~1\AppData\Local\Temp\cc8GaZLt.o
 .data          0x20000000        0x0 C:\Users\PHUCLU~1\AppData\Local\Temp\ccccY9qJ.o
 .data          0x20000000       0x10 C:\Users\PHUCLU~1\AppData\Local\Temp\ccC45PK3.o
 .data          0x20000010        0xc C:\Users\PHUCLU~1\AppData\Local\Temp\ccKtz85o.o
                0x20000010                Dio_Config
 .data          0x2000001c       0x10 C:\Users\PHUCLU~1\AppData\Local\Temp\ccwHAI1O.o
 .data          0x2000002c        0x0 C:\Users\PHUCLU~1\AppData\Local\Temp\ccuha6Pl.o
 .data          0x2000002c        0x0 C:\Users\PHUCLU~1\AppData\Local\Temp\ccglwz5W.o
 .data          0x2000002c        0xa C:\Users\PHUCLU~1\AppData\Local\Temp\cce7fNdz.o
                0x2000002c                Pwm_Configuration
 *fill*         0x20000036        0x2 
 .data          0x20000038        0x8 C:\Users\PHUCLU~1\AppData\Local\Temp\ccOkSOQi.o
 .data          0x20000040        0xe C:\Users\PHUCLU~1\AppData\Local\Temp\ccq9ev37.o
 .data          0x2000004e        0x0 C:\Users\PHUCLU~1\AppData\Local\Temp\ccgPDYWX.o
 *fill*         0x2000004e        0x2 
 .data          0x20000050       0x1c C:\Users\PHUCLU~1\AppData\Local\Temp\ccGtOnDT.o
                0x20000050                PrehiralConfig
                0x2000005c                Mcu_Clock_Configuration
                0x20000064                Mcu_Configuration
 .data          0x2000006c        0x0 C:\Users\PHUCLU~1\AppData\Local\Temp\ccsda8gU.o
 .data          0x2000006c        0x0 C:\Users\PHUCLU~1\AppData\Local\Temp\ccoQREgZ.o
 .data          0x2000006c        0x0 C:\Users\PHUCLU~1\AppData\Local\Temp\ccwV6iw5.o
 .data          0x2000006c        0x8 C:\Users\PHUCLU~1\AppData\Local\Temp\ccpck3Z5.o
                0x2000006c                SensorConfigType
                0x20000070                ActuatorConfigType
 *(.data*)
                0x20000074                . = ALIGN (0x4)
                0x20000074                _edata = .
                0x08002418                _sidata = LOADADDR (.data)

.igot.plt       0x20000074        0x0 load address 0x0800248c
 .igot.plt      0x20000074        0x0 C:\Users\PHUCLU~1\AppData\Local\Temp\cc8GaZLt.o

.bss            0x20000074       0x24 load address 0x0800248c
                0x20000074                . = ALIGN (0x4)
                0x20000074                _sbss = .
 *(.bss)
 .bss           0x20000074        0x0 C:\Users\PHUCLU~1\AppData\Local\Temp\cc8GaZLt.o
 .bss           0x20000074        0x0 C:\Users\PHUCLU~1\AppData\Local\Temp\ccccY9qJ.o
 .bss           0x20000074        0x4 C:\Users\PHUCLU~1\AppData\Local\Temp\ccC45PK3.o
 .bss           0x20000078        0x0 C:\Users\PHUCLU~1\AppData\Local\Temp\ccKtz85o.o
 .bss           0x20000078        0x0 C:\Users\PHUCLU~1\AppData\Local\Temp\ccwHAI1O.o
 .bss           0x20000078        0x0 C:\Users\PHUCLU~1\AppData\Local\Temp\ccuha6Pl.o
 .bss           0x20000078        0x0 C:\Users\PHUCLU~1\AppData\Local\Temp\ccglwz5W.o
 .bss           0x20000078        0x0 C:\Users\PHUCLU~1\AppData\Local\Temp\cce7fNdz.o
 .bss           0x20000078        0xc C:\Users\PHUCLU~1\AppData\Local\Temp\ccOkSOQi.o
 .bss           0x20000084       0x10 C:\Users\PHUCLU~1\AppData\Local\Temp\ccq9ev37.o
                0x2000008c                adcValue0
                0x20000090                adcValue1
 .bss           0x20000094        0x0 C:\Users\PHUCLU~1\AppData\Local\Temp\ccgPDYWX.o
 .bss           0x20000094        0x0 C:\Users\PHUCLU~1\AppData\Local\Temp\ccGtOnDT.o
 .bss           0x20000094        0x0 C:\Users\PHUCLU~1\AppData\Local\Temp\ccsda8gU.o
 .bss           0x20000094        0x1 C:\Users\PHUCLU~1\AppData\Local\Temp\ccoQREgZ.o
                0x20000094                SystemFlags
 .bss           0x20000095        0x0 C:\Users\PHUCLU~1\AppData\Local\Temp\ccwV6iw5.o
 .bss           0x20000095        0x0 C:\Users\PHUCLU~1\AppData\Local\Temp\ccpck3Z5.o
 *(.bss*)
 *(COMMON)
                0x20000098                . = ALIGN (0x4)
 *fill*         0x20000095        0x3 
                0x20000098                _ebss = .
                0x20000098                _sheap = .
                0x20005000                _estack = (ORIGIN (RAM) + LENGTH (RAM))
OUTPUT(firmware.elf elf32-littlearm)
LOAD linker stubs

.debug_info     0x00000000     0x364d
 .debug_info    0x00000000      0x14c C:\Users\PHUCLU~1\AppData\Local\Temp\cc8GaZLt.o
 .debug_info    0x0000014c      0x38d C:\Users\PHUCLU~1\AppData\Local\Temp\ccccY9qJ.o
 .debug_info    0x000004d9      0x490 C:\Users\PHUCLU~1\AppData\Local\Temp\ccC45PK3.o
 .debug_info    0x00000969      0x12b C:\Users\PHUCLU~1\AppData\Local\Temp\ccKtz85o.o
 .debug_info    0x00000a94      0x3b5 C:\Users\PHUCLU~1\AppData\Local\Temp\ccwHAI1O.o
 .debug_info    0x00000e49      0x160 C:\Users\PHUCLU~1\AppData\Local\Temp\ccuha6Pl.o
 .debug_info    0x00000fa9      0x4f6 C:\Users\PHUCLU~1\AppData\Local\Temp\ccglwz5W.o
 .debug_info    0x0000149f      0x1ca C:\Users\PHUCLU~1\AppData\Local\Temp\cce7fNdz.o
 .debug_info    0x00001669      0xb7d C:\Users\PHUCLU~1\AppData\Local\Temp\ccOkSOQi.o
 .debug_info    0x000021e6      0x398 C:\Users\PHUCLU~1\AppData\Local\Temp\ccq9ev37.o
 .debug_info    0x0000257e      0x521 C:\Users\PHUCLU~1\AppData\Local\Temp\ccgPDYWX.o
 .debug_info    0x00002a9f      0x205 C:\Users\PHUCLU~1\AppData\Local\Temp\ccGtOnDT.o
 .debug_info    0x00002ca4      0x21f C:\Users\PHUCLU~1\AppData\Local\Temp\ccsda8gU.o
 .debug_info    0x00002ec3       0xce C:\Users\PHUCLU~1\AppData\Local\Temp\ccoQREgZ.o
 .debug_info    0x00002f91      0x520 C:\Users\PHUCLU~1\AppData\Local\Temp\ccwV6iw5.o
 .debug_info    0x000034b1      0x19c C:\Users\PHUCLU~1\AppData\Local\Temp\ccpck3Z5.o

.debug_abbrev   0x00000000      0xf50
 .debug_abbrev  0x00000000       0xcf C:\Users\PHUCLU~1\AppData\Local\Temp\cc8GaZLt.o
 .debug_abbrev  0x000000cf       0xff C:\Users\PHUCLU~1\AppData\Local\Temp\ccccY9qJ.o
 .debug_abbrev  0x000001ce      0x14b C:\Users\PHUCLU~1\AppData\Local\Temp\ccC45PK3.o
 .debug_abbrev  0x00000319       0x8b C:\Users\PHUCLU~1\AppData\Local\Temp\ccKtz85o.o
 .debug_abbrev  0x000003a4      0x170 C:\Users\PHUCLU~1\AppData\Local\Temp\ccwHAI1O.o
 .debug_abbrev  0x00000514       0xa8 C:\Users\PHUCLU~1\AppData\Local\Temp\ccuha6Pl.o
 .debug_abbrev  0x000005bc      0x165 C:\Users\PHUCLU~1\AppData\Local\Temp\ccglwz5W.o
 .debug_abbrev  0x00000721       0xac C:\Users\PHUCLU~1\AppData\Local\Temp\cce7fNdz.o
 .debug_abbrev  0x000007cd      0x236 C:\Users\PHUCLU~1\AppData\Local\Temp\ccOkSOQi.o
 .debug_abbrev  0x00000a03       0xc6 C:\Users\PHUCLU~1\AppData\Local\Temp\ccq9ev37.o
 .debug_abbrev  0x00000ac9      0x11a C:\Users\PHUCLU~1\AppData\Local\Temp\ccgPDYWX.o
 .debug_abbrev  0x00000be3       0xb9 C:\Users\PHUCLU~1\AppData\Local\Temp\ccGtOnDT.o
 .debug_abbrev  0x00000c9c       0xaf C:\Users\PHUCLU~1\AppData\Local\Temp\ccsda8gU.o
 .debug_abbrev  0x00000d4b       0x77 C:\Users\PHUCLU~1\AppData\Local\Temp\ccoQREgZ.o
 .debug_abbrev  0x00000dc2       0xed C:\Users\PHUCLU~1\AppData\Local\Temp\ccwV6iw5.o
 .debug_abbrev  0x00000eaf       0xa1 C:\Users\PHUCLU~1\AppData\Local\Temp\ccpck3Z5.o

.debug_aranges  0x00000000      0x1c8
 .debug_aranges
                0x00000000       0x20 C:\Users\PHUCLU~1\AppData\Local\Temp\cc8GaZLt.o
 .debug_aranges
                0x00000020       0x20 C:\Users\PHUCLU~1\AppData\Local\Temp\ccccY9qJ.o
 .debug_aranges
                0x00000040       0x20 C:\Users\PHUCLU~1\AppData\Local\Temp\ccC45PK3.o
 .debug_aranges
                0x00000060       0x18 C:\Users\PHUCLU~1\AppData\Local\Temp\ccKtz85o.o
 .debug_aranges
                0x00000078       0x20 C:\Users\PHUCLU~1\AppData\Local\Temp\ccwHAI1O.o
 .debug_aranges
                0x00000098       0x18 C:\Users\PHUCLU~1\AppData\Local\Temp\ccuha6Pl.o
 .debug_aranges
                0x000000b0       0x20 C:\Users\PHUCLU~1\AppData\Local\Temp\ccglwz5W.o
 .debug_aranges
                0x000000d0       0x18 C:\Users\PHUCLU~1\AppData\Local\Temp\cce7fNdz.o
 .debug_aranges
                0x000000e8       0x20 C:\Users\PHUCLU~1\AppData\Local\Temp\ccOkSOQi.o
 .debug_aranges
                0x00000108       0x18 C:\Users\PHUCLU~1\AppData\Local\Temp\ccq9ev37.o
 .debug_aranges
                0x00000120       0x20 C:\Users\PHUCLU~1\AppData\Local\Temp\ccgPDYWX.o
 .debug_aranges
                0x00000140       0x18 C:\Users\PHUCLU~1\AppData\Local\Temp\ccGtOnDT.o
 .debug_aranges
                0x00000158       0x20 C:\Users\PHUCLU~1\AppData\Local\Temp\ccsda8gU.o
 .debug_aranges
                0x00000178       0x18 C:\Users\PHUCLU~1\AppData\Local\Temp\ccoQREgZ.o
 .debug_aranges
                0x00000190       0x20 C:\Users\PHUCLU~1\AppData\Local\Temp\ccwV6iw5.o
 .debug_aranges
                0x000001b0       0x18 C:\Users\PHUCLU~1\AppData\Local\Temp\ccpck3Z5.o

.debug_line     0x00000000     0x28c9
 .debug_line    0x00000000      0x186 C:\Users\PHUCLU~1\AppData\Local\Temp\cc8GaZLt.o
 .debug_line    0x00000186      0x247 C:\Users\PHUCLU~1\AppData\Local\Temp\ccccY9qJ.o
 .debug_line    0x000003cd      0x2e9 C:\Users\PHUCLU~1\AppData\Local\Temp\ccC45PK3.o
 .debug_line    0x000006b6      0x176 C:\Users\PHUCLU~1\AppData\Local\Temp\ccKtz85o.o
 .debug_line    0x0000082c      0x50e C:\Users\PHUCLU~1\AppData\Local\Temp\ccwHAI1O.o
 .debug_line    0x00000d3a      0x14d C:\Users\PHUCLU~1\AppData\Local\Temp\ccuha6Pl.o
 .debug_line    0x00000e87      0x4c0 C:\Users\PHUCLU~1\AppData\Local\Temp\ccglwz5W.o
 .debug_line    0x00001347      0x157 C:\Users\PHUCLU~1\AppData\Local\Temp\cce7fNdz.o
 .debug_line    0x0000149e      0x826 C:\Users\PHUCLU~1\AppData\Local\Temp\ccOkSOQi.o
 .debug_line    0x00001cc4      0x19b C:\Users\PHUCLU~1\AppData\Local\Temp\ccq9ev37.o
 .debug_line    0x00001e5f      0x2af C:\Users\PHUCLU~1\AppData\Local\Temp\ccgPDYWX.o
 .debug_line    0x0000210e      0x14e C:\Users\PHUCLU~1\AppData\Local\Temp\ccGtOnDT.o
 .debug_line    0x0000225c      0x187 C:\Users\PHUCLU~1\AppData\Local\Temp\ccsda8gU.o
 .debug_line    0x000023e3      0x140 C:\Users\PHUCLU~1\AppData\Local\Temp\ccoQREgZ.o
 .debug_line    0x00002523      0x216 C:\Users\PHUCLU~1\AppData\Local\Temp\ccwV6iw5.o
 .debug_line    0x00002739      0x190 C:\Users\PHUCLU~1\AppData\Local\Temp\ccpck3Z5.o

.debug_str      0x00000000     0x1375
 .debug_str     0x00000000      0x164 C:\Users\PHUCLU~1\AppData\Local\Temp\cc8GaZLt.o
                                0x1a1 (size before relaxing)
 .debug_str     0x00000164      0x229 C:\Users\PHUCLU~1\AppData\Local\Temp\ccccY9qJ.o
                                0x381 (size before relaxing)
 .debug_str     0x0000038d      0x1dc C:\Users\PHUCLU~1\AppData\Local\Temp\ccC45PK3.o
                                0x378 (size before relaxing)
 .debug_str     0x00000569       0x2b C:\Users\PHUCLU~1\AppData\Local\Temp\ccKtz85o.o
                                0x1be (size before relaxing)
 .debug_str     0x00000594       0xb6 C:\Users\PHUCLU~1\AppData\Local\Temp\ccwHAI1O.o
                                0x32d (size before relaxing)
 .debug_str     0x0000064a       0x22 C:\Users\PHUCLU~1\AppData\Local\Temp\ccuha6Pl.o
                                0x1d2 (size before relaxing)
 .debug_str     0x0000066c      0x20d C:\Users\PHUCLU~1\AppData\Local\Temp\ccglwz5W.o
                                0x391 (size before relaxing)
 .debug_str     0x00000879       0x32 C:\Users\PHUCLU~1\AppData\Local\Temp\cce7fNdz.o
                                0x2a4 (size before relaxing)
 .debug_str     0x000008ab      0x7fe C:\Users\PHUCLU~1\AppData\Local\Temp\ccOkSOQi.o
                                0x9ba (size before relaxing)
 .debug_str     0x000010a9       0x9f C:\Users\PHUCLU~1\AppData\Local\Temp\ccq9ev37.o
                                0x438 (size before relaxing)
 .debug_str     0x00001148       0xde C:\Users\PHUCLU~1\AppData\Local\Temp\ccgPDYWX.o
                                0x398 (size before relaxing)
 .debug_str     0x00001226       0x2f C:\Users\PHUCLU~1\AppData\Local\Temp\ccGtOnDT.o
                                0x288 (size before relaxing)
 .debug_str     0x00001255       0x59 C:\Users\PHUCLU~1\AppData\Local\Temp\ccsda8gU.o
                                0x206 (size before relaxing)
 .debug_str     0x000012ae       0x17 C:\Users\PHUCLU~1\AppData\Local\Temp\ccoQREgZ.o
                                0x17f (size before relaxing)
 .debug_str     0x000012c5       0x89 C:\Users\PHUCLU~1\AppData\Local\Temp\ccwV6iw5.o
                                0x5bd (size before relaxing)
 .debug_str     0x0000134e       0x27 C:\Users\PHUCLU~1\AppData\Local\Temp\ccpck3Z5.o
                                0x201 (size before relaxing)

.comment        0x00000000       0x49
 .comment       0x00000000       0x49 C:\Users\PHUCLU~1\AppData\Local\Temp\cc8GaZLt.o
                                 0x4a (size before relaxing)
 .comment       0x00000049       0x4a C:\Users\PHUCLU~1\AppData\Local\Temp\ccccY9qJ.o
 .comment       0x00000049       0x4a C:\Users\PHUCLU~1\AppData\Local\Temp\ccC45PK3.o
 .comment       0x00000049       0x4a C:\Users\PHUCLU~1\AppData\Local\Temp\ccKtz85o.o
 .comment       0x00000049       0x4a C:\Users\PHUCLU~1\AppData\Local\Temp\ccwHAI1O.o
 .comment       0x00000049       0x4a C:\Users\PHUCLU~1\AppData\Local\Temp\ccuha6Pl.o
 .comment       0x00000049       0x4a C:\Users\PHUCLU~1\AppData\Local\Temp\ccglwz5W.o
 .comment       0x00000049       0x4a C:\Users\PHUCLU~1\AppData\Local\Temp\cce7fNdz.o
 .comment       0x00000049       0x4a C:\Users\PHUCLU~1\AppData\Local\Temp\ccOkSOQi.o
 .comment       0x00000049       0x4a C:\Users\PHUCLU~1\AppData\Local\Temp\ccq9ev37.o
 .comment       0x00000049       0x4a C:\Users\PHUCLU~1\AppData\Local\Temp\ccgPDYWX.o
 .comment       0x00000049       0x4a C:\Users\PHUCLU~1\AppData\Local\Temp\ccGtOnDT.o
 .comment       0x00000049       0x4a C:\Users\PHUCLU~1\AppData\Local\Temp\ccsda8gU.o
 .comment       0x00000049       0x4a C:\Users\PHUCLU~1\AppData\Local\Temp\ccoQREgZ.o
 .comment       0x00000049       0x4a C:\Users\PHUCLU~1\AppData\Local\Temp\ccwV6iw5.o
 .comment       0x00000049       0x4a C:\Users\PHUCLU~1\AppData\Local\Temp\ccpck3Z5.o

.ARM.attributes
                0x00000000       0x2d
 .ARM.attributes
                0x00000000       0x2d C:\Users\PHUCLU~1\AppData\Local\Temp\cc8GaZLt.o
 .ARM.attributes
                0x0000002d       0x2d C:\Users\PHUCLU~1\AppData\Local\Temp\ccccY9qJ.o
 .ARM.attributes
                0x0000005a       0x2d C:\Users\PHUCLU~1\AppData\Local\Temp\ccC45PK3.o
 .ARM.attributes
                0x00000087       0x2d C:\Users\PHUCLU~1\AppData\Local\Temp\ccKtz85o.o
 .ARM.attributes
                0x000000b4       0x2d C:\Users\PHUCLU~1\AppData\Local\Temp\ccwHAI1O.o
 .ARM.attributes
                0x000000e1       0x2d C:\Users\PHUCLU~1\AppData\Local\Temp\ccuha6Pl.o
 .ARM.attributes
                0x0000010e       0x2d C:\Users\PHUCLU~1\AppData\Local\Temp\ccglwz5W.o
 .ARM.attributes
                0x0000013b       0x2d C:\Users\PHUCLU~1\AppData\Local\Temp\cce7fNdz.o
 .ARM.attributes
                0x00000168       0x2d C:\Users\PHUCLU~1\AppData\Local\Temp\ccOkSOQi.o
 .ARM.attributes
                0x00000195       0x2d C:\Users\PHUCLU~1\AppData\Local\Temp\ccq9ev37.o
 .ARM.attributes
                0x000001c2       0x2d C:\Users\PHUCLU~1\AppData\Local\Temp\ccgPDYWX.o
 .ARM.attributes
                0x000001ef       0x2d C:\Users\PHUCLU~1\AppData\Local\Temp\ccGtOnDT.o
 .ARM.attributes
                0x0000021c       0x2d C:\Users\PHUCLU~1\AppData\Local\Temp\ccsda8gU.o
 .ARM.attributes
                0x00000249       0x2d C:\Users\PHUCLU~1\AppData\Local\Temp\ccoQREgZ.o
 .ARM.attributes
                0x00000276       0x2d C:\Users\PHUCLU~1\AppData\Local\Temp\ccwV6iw5.o
 .ARM.attributes
                0x000002a3       0x2d C:\Users\PHUCLU~1\AppData\Local\Temp\ccpck3Z5.o

.debug_frame    0x00000000      0x7a0
 .debug_frame   0x00000000       0x48 C:\Users\PHUCLU~1\AppData\Local\Temp\cc8GaZLt.o
 .debug_frame   0x00000048       0x54 C:\Users\PHUCLU~1\AppData\Local\Temp\ccccY9qJ.o
 .debug_frame   0x0000009c      0x178 C:\Users\PHUCLU~1\AppData\Local\Temp\ccC45PK3.o
 .debug_frame   0x00000214       0xec C:\Users\PHUCLU~1\AppData\Local\Temp\ccwHAI1O.o
 .debug_frame   0x00000300      0x110 C:\Users\PHUCLU~1\AppData\Local\Temp\ccglwz5W.o
 .debug_frame   0x00000410      0x208 C:\Users\PHUCLU~1\AppData\Local\Temp\ccOkSOQi.o
 .debug_frame   0x00000618       0xb0 C:\Users\PHUCLU~1\AppData\Local\Temp\ccgPDYWX.o
 .debug_frame   0x000006c8       0x38 C:\Users\PHUCLU~1\AppData\Local\Temp\ccsda8gU.o
 .debug_frame   0x00000700       0xa0 C:\Users\PHUCLU~1\AppData\Local\Temp\ccwV6iw5.o
