
Memory Configuration

Name             Origin             Length             Attributes
FLASH            0x08000000         0x00010000         xr
RAM              0x20000000         0x00005000         xrw
*default*        0x00000000         0xffffffff

Linker script and memory map

LOAD C:\Users\PHUCLU~1\AppData\Local\Temp\ccUtnGyN.o
LOAD C:\Users\PHUCLU~1\AppData\Local\Temp\ccST0p0e.o
LOAD C:\Users\PHUCLU~1\AppData\Local\Temp\ccy0sCyL.o
LOAD C:\Users\PHUCLU~1\AppData\Local\Temp\cca1aUQm.o
LOAD C:\Users\PHUCLU~1\AppData\Local\Temp\ccuygZz1.o

.isr_vector     0x08000000       0xe4
                0x08000000                . = ALIGN (0x4)
 *(.isr_vector)
 .isr_vector    0x08000000       0xe4 C:\Users\PHUCLU~1\AppData\Local\Temp\ccy0sCyL.o
                0x08000000                g_pfnVectors
                0x080000e4                . = ALIGN (0x4)

.text           0x080000e4     0x1264
                0x080000e4                . = ALIGN (0x4)
 *(.text)
 .text          0x080000e4       0x90 C:\Users\PHUCLU~1\AppData\Local\Temp\ccUtnGyN.o
                0x080000e4                delay
                0x08000104                main
 .text          0x08000174      0x2c4 C:\Users\PHUCLU~1\AppData\Local\Temp\ccST0p0e.o
                0x08000174                Dio_ReadChannel
                0x080001c0                Dio_WriteChannel
                0x08000250                Dio_ReadPort
                0x08000274                Dio_WritePort
                0x080002a0                Dio_ReadChannelGroup
                0x080002dc                Dio_WriteChannelGroup
                0x08000334                Dio_GetVersionInfo
                0x0800036c                Dio_FlipChannel
                0x080003e4                Dio_MaskedWritePort
 .text          0x08000438       0x64 C:\Users\PHUCLU~1\AppData\Local\Temp\ccy0sCyL.o
                0x08000438                Reset_Handler
                0x08000494                HardFault_Handler
                0x08000494                SysTick_Handler
                0x08000494                PVD_IRQHandler
                0x08000494                PendSV_Handler
                0x08000494                NMI_Handler
                0x08000494                EXTI0_IRQHandler
                0x08000494                UsageFault_Handler
                0x08000494                DebugMon_Handler
                0x08000494                TIM3_IRQHandler
                0x08000494                Default_Handler
                0x08000494                EXTI15_10_IRQHandler
                0x08000494                MemManage_Handler
                0x08000494                SVC_Handler
                0x08000494                WWDG_IRQHandler
                0x08000494                TIM2_IRQHandler
                0x08000494                EXTI1_IRQHandler
                0x08000494                BusFault_Handler
                0x08000494                USART1_IRQHandler
 .text          0x0800049c      0x76c C:\Users\PHUCLU~1\AppData\Local\Temp\cca1aUQm.o
                0x0800049c                Port_Init
                0x080005dc                Port_SetPinDirection
                0x08000884                Port_RefreshPortDirection
                0x08000a78                Port_GetVersionInfo
                0x08000a8a                Port_SetPinMode
 .text          0x08000c08      0x730 C:\Users\PHUCLU~1\AppData\Local\Temp\ccuygZz1.o
                0x08000c08                get_CCRx
                0x08000c4c                Pwm_Init
                0x080010cc                Pwm_DeInit
                0x080010e8                Pwm_SetDutyCycle
                0x080011a4                Pwm_SetPeriodAndDuty
                0x0800126c                Pwm_SetOutputToIdle
                0x080012d0                Pwm_GetOutputState
 *(.text*)
 *(.rodata)
 .rodata        0x08001338        0xf C:\Users\PHUCLU~1\AppData\Local\Temp\cca1aUQm.o
                0x08001338                Port_Configuration
 *(.rodata*)
                0x08001348                . = ALIGN (0x4)
 *fill*         0x08001347        0x1 
                0x08001348                _etext = .

.glue_7         0x08001348        0x0
 .glue_7        0x08001348        0x0 linker stubs

.glue_7t        0x08001348        0x0
 .glue_7t       0x08001348        0x0 linker stubs

.vfp11_veneer   0x08001348        0x0
 .vfp11_veneer  0x08001348        0x0 linker stubs

.v4_bx          0x08001348        0x0
 .v4_bx         0x08001348        0x0 linker stubs

.iplt           0x08001348        0x0
 .iplt          0x08001348        0x0 C:\Users\PHUCLU~1\AppData\Local\Temp\ccUtnGyN.o

.rel.dyn        0x08001348        0x0
 .rel.iplt      0x08001348        0x0 C:\Users\PHUCLU~1\AppData\Local\Temp\ccUtnGyN.o

.data           0x20000000       0x48 load address 0x08001348
                0x20000000                . = ALIGN (0x4)
                0x20000000                _sdata = .
 *(.data)
 .data          0x20000000       0x28 C:\Users\PHUCLU~1\AppData\Local\Temp\ccUtnGyN.o
                0x20000000                Pwm_Configuration
 .data          0x20000028       0x10 C:\Users\PHUCLU~1\AppData\Local\Temp\ccST0p0e.o
 .data          0x20000038        0x0 C:\Users\PHUCLU~1\AppData\Local\Temp\ccy0sCyL.o
 .data          0x20000038       0x10 C:\Users\PHUCLU~1\AppData\Local\Temp\cca1aUQm.o
 .data          0x20000048        0x0 C:\Users\PHUCLU~1\AppData\Local\Temp\ccuygZz1.o
 *(.data*)
                0x20000048                . = ALIGN (0x4)
                0x20000048                _edata = .
                0x08001348                _sidata = LOADADDR (.data)

.igot.plt       0x20000048        0x0 load address 0x08001390
 .igot.plt      0x20000048        0x0 C:\Users\PHUCLU~1\AppData\Local\Temp\ccUtnGyN.o

.bss            0x20000048        0x8 load address 0x08001390
                0x20000048                . = ALIGN (0x4)
                0x20000048                _sbss = .
 *(.bss)
 .bss           0x20000048        0x4 C:\Users\PHUCLU~1\AppData\Local\Temp\ccUtnGyN.o
                0x20000048                Count
 .bss           0x2000004c        0x4 C:\Users\PHUCLU~1\AppData\Local\Temp\ccST0p0e.o
 .bss           0x20000050        0x0 C:\Users\PHUCLU~1\AppData\Local\Temp\ccy0sCyL.o
 .bss           0x20000050        0x0 C:\Users\PHUCLU~1\AppData\Local\Temp\cca1aUQm.o
 .bss           0x20000050        0x0 C:\Users\PHUCLU~1\AppData\Local\Temp\ccuygZz1.o
 *(.bss*)
 *(COMMON)
                0x20000050                . = ALIGN (0x4)
                0x20000050                _ebss = .
                0x20000050                _sheap = .
                0x20005000                _estack = (ORIGIN (RAM) + LENGTH (RAM))
OUTPUT(firmware.elf elf32-littlearm)
LOAD linker stubs

.debug_info     0x00000000     0x135c
 .debug_info    0x00000000      0x4ae C:\Users\PHUCLU~1\AppData\Local\Temp\ccUtnGyN.o
 .debug_info    0x000004ae      0x490 C:\Users\PHUCLU~1\AppData\Local\Temp\ccST0p0e.o
 .debug_info    0x0000093e      0x14c C:\Users\PHUCLU~1\AppData\Local\Temp\ccy0sCyL.o
 .debug_info    0x00000a8a      0x3dc C:\Users\PHUCLU~1\AppData\Local\Temp\cca1aUQm.o
 .debug_info    0x00000e66      0x4f6 C:\Users\PHUCLU~1\AppData\Local\Temp\ccuygZz1.o

.debug_abbrev   0x00000000      0x65a
 .debug_abbrev  0x00000000      0x158 C:\Users\PHUCLU~1\AppData\Local\Temp\ccUtnGyN.o
 .debug_abbrev  0x00000158      0x14b C:\Users\PHUCLU~1\AppData\Local\Temp\ccST0p0e.o
 .debug_abbrev  0x000002a3       0xcf C:\Users\PHUCLU~1\AppData\Local\Temp\ccy0sCyL.o
 .debug_abbrev  0x00000372      0x181 C:\Users\PHUCLU~1\AppData\Local\Temp\cca1aUQm.o
 .debug_abbrev  0x000004f3      0x167 C:\Users\PHUCLU~1\AppData\Local\Temp\ccuygZz1.o

.debug_aranges  0x00000000       0xa0
 .debug_aranges
                0x00000000       0x20 C:\Users\PHUCLU~1\AppData\Local\Temp\ccUtnGyN.o
 .debug_aranges
                0x00000020       0x20 C:\Users\PHUCLU~1\AppData\Local\Temp\ccST0p0e.o
 .debug_aranges
                0x00000040       0x20 C:\Users\PHUCLU~1\AppData\Local\Temp\ccy0sCyL.o
 .debug_aranges
                0x00000060       0x20 C:\Users\PHUCLU~1\AppData\Local\Temp\cca1aUQm.o
 .debug_aranges
                0x00000080       0x20 C:\Users\PHUCLU~1\AppData\Local\Temp\ccuygZz1.o

.debug_line     0x00000000      0xfc8
 .debug_line    0x00000000      0x1dc C:\Users\PHUCLU~1\AppData\Local\Temp\ccUtnGyN.o
 .debug_line    0x000001dc      0x2f3 C:\Users\PHUCLU~1\AppData\Local\Temp\ccST0p0e.o
 .debug_line    0x000004cf      0x186 C:\Users\PHUCLU~1\AppData\Local\Temp\ccy0sCyL.o
 .debug_line    0x00000655      0x4bf C:\Users\PHUCLU~1\AppData\Local\Temp\cca1aUQm.o
 .debug_line    0x00000b14      0x4b4 C:\Users\PHUCLU~1\AppData\Local\Temp\ccuygZz1.o

.debug_str      0x00000000      0x713
 .debug_str     0x00000000      0x34b C:\Users\PHUCLU~1\AppData\Local\Temp\ccUtnGyN.o
                                0x3af (size before relaxing)
 .debug_str     0x0000034b      0x1df C:\Users\PHUCLU~1\AppData\Local\Temp\ccST0p0e.o
                                0x37a (size before relaxing)
 .debug_str     0x0000052a       0x70 C:\Users\PHUCLU~1\AppData\Local\Temp\ccy0sCyL.o
                                0x1a1 (size before relaxing)
 .debug_str     0x0000059a       0xc2 C:\Users\PHUCLU~1\AppData\Local\Temp\cca1aUQm.o
                                0x32f (size before relaxing)
 .debug_str     0x0000065c       0xb7 C:\Users\PHUCLU~1\AppData\Local\Temp\ccuygZz1.o
                                0x393 (size before relaxing)

.comment        0x00000000       0x49
 .comment       0x00000000       0x49 C:\Users\PHUCLU~1\AppData\Local\Temp\ccUtnGyN.o
                                 0x4a (size before relaxing)
 .comment       0x00000049       0x4a C:\Users\PHUCLU~1\AppData\Local\Temp\ccST0p0e.o
 .comment       0x00000049       0x4a C:\Users\PHUCLU~1\AppData\Local\Temp\ccy0sCyL.o
 .comment       0x00000049       0x4a C:\Users\PHUCLU~1\AppData\Local\Temp\cca1aUQm.o
 .comment       0x00000049       0x4a C:\Users\PHUCLU~1\AppData\Local\Temp\ccuygZz1.o

.ARM.attributes
                0x00000000       0x2d
 .ARM.attributes
                0x00000000       0x2d C:\Users\PHUCLU~1\AppData\Local\Temp\ccUtnGyN.o
 .ARM.attributes
                0x0000002d       0x2d C:\Users\PHUCLU~1\AppData\Local\Temp\ccST0p0e.o
 .ARM.attributes
                0x0000005a       0x2d C:\Users\PHUCLU~1\AppData\Local\Temp\ccy0sCyL.o
 .ARM.attributes
                0x00000087       0x2d C:\Users\PHUCLU~1\AppData\Local\Temp\cca1aUQm.o
 .ARM.attributes
                0x000000b4       0x2d C:\Users\PHUCLU~1\AppData\Local\Temp\ccuygZz1.o

.debug_frame    0x00000000      0x410
 .debug_frame   0x00000000       0x54 C:\Users\PHUCLU~1\AppData\Local\Temp\ccUtnGyN.o
 .debug_frame   0x00000054      0x178 C:\Users\PHUCLU~1\AppData\Local\Temp\ccST0p0e.o
 .debug_frame   0x000001cc       0x48 C:\Users\PHUCLU~1\AppData\Local\Temp\ccy0sCyL.o
 .debug_frame   0x00000214       0xec C:\Users\PHUCLU~1\AppData\Local\Temp\cca1aUQm.o
 .debug_frame   0x00000300      0x110 C:\Users\PHUCLU~1\AppData\Local\Temp\ccuygZz1.o
