
There are no discarded input sections

Memory Configuration

Name             Origin             Length             Attributes
FLASH            0x08000000         0x00010000         xr
RAM              0x20000000         0x00005000         xrw
*default*        0x00000000         0xffffffff

Linker script and memory map

LOAD C:\Users\luuph\AppData\Local\Temp\ccwuzsdv.o
LOAD C:\Users\luuph\AppData\Local\Temp\ccBAbAQd.o
LOAD C:\Users\luuph\AppData\Local\Temp\ccqsw4g2.o
LOAD C:\Users\luuph\AppData\Local\Temp\ccDuUK4V.o
LOAD C:\Users\luuph\AppData\Local\Temp\ccQ6YtHU.o
LOAD C:\Users\luuph\AppData\Local\Temp\ccnzDAIT.o

.isr_vector     0x08000000       0xe4
                0x08000000                        . = ALIGN (0x4)
 *(.isr_vector)
 .isr_vector    0x08000000       0xe4 C:\Users\luuph\AppData\Local\Temp\ccqsw4g2.o
                0x08000000                g_pfnVectors
                0x080000e4                        . = ALIGN (0x4)

.text           0x080000e4     0x1688
                0x080000e4                        . = ALIGN (0x4)
 *(.text)
 .text          0x080000e4      0x108 C:\Users\luuph\AppData\Local\Temp\ccwuzsdv.o
                0x080000e4                delay
                0x08000104                main
 .text          0x080001ec      0x2c4 C:\Users\luuph\AppData\Local\Temp\ccBAbAQd.o
                0x080001ec                Dio_ReadChannel
                0x08000238                Dio_WriteChannel
                0x080002c8                Dio_ReadPort
                0x080002ec                Dio_WritePort
                0x08000318                Dio_ReadChannelGroup
                0x08000354                Dio_WriteChannelGroup
                0x080003ac                Dio_GetVersionInfo
                0x080003e4                Dio_FlipChannel
                0x0800045c                Dio_MaskedWritePort
 .text          0x080004b0       0x64 C:\Users\luuph\AppData\Local\Temp\ccqsw4g2.o
                0x080004b0                Reset_Handler
                0x0800050c                HardFault_Handler
                0x0800050c                SysTick_Handler
                0x0800050c                PVD_IRQHandler
                0x0800050c                PendSV_Handler
                0x0800050c                NMI_Handler
                0x0800050c                EXTI0_IRQHandler
                0x0800050c                UsageFault_Handler
                0x0800050c                DebugMon_Handler
                0x0800050c                TIM3_IRQHandler
                0x0800050c                Default_Handler
                0x0800050c                EXTI15_10_IRQHandler
                0x0800050c                MemManage_Handler
                0x0800050c                SVC_Handler
                0x0800050c                WWDG_IRQHandler
                0x0800050c                TIM2_IRQHandler
                0x0800050c                EXTI1_IRQHandler
                0x0800050c                BusFault_Handler
                0x0800050c                USART1_IRQHandler
 .text          0x08000514      0x808 C:\Users\luuph\AppData\Local\Temp\ccDuUK4V.o
                0x08000514                Port_Init
                0x080006f0                Port_SetPinDirection
                0x08000998                Port_RefreshPortDirection
                0x08000b8c                Port_GetVersionInfo
                0x08000b9e                Port_SetPinMode
 .text          0x08000d1c      0x738 C:\Users\luuph\AppData\Local\Temp\ccQ6YtHU.o
                0x08000d1c                get_CCRx
                0x08000d60                Pwm_Init
                0x080011e0                Pwm_DeInit
                0x08001204                Pwm_SetDutyCycle
                0x080012c0                Pwm_SetPeriodAndDuty
                0x08001388                Pwm_SetOutputToIdle
                0x080013ec                Pwm_GetOutputState
 .text          0x08001454      0x304 C:\Users\luuph\AppData\Local\Temp\ccnzDAIT.o
                0x08001454                Adc_Init
                0x080015c0                Adc_SetupResultBuffer
                0x080015e4                Adc_DeInit
                0x08001620                Adc_StartGroupConversion
 *(.text*)
 *(.rodata)
 .rodata        0x08001758       0x14 C:\Users\luuph\AppData\Local\Temp\ccwuzsdv.o
                0x08001758                Port_Configuration
 *(.rodata*)
                0x0800176c                        . = ALIGN (0x4)
                0x0800176c                        _etext = .

.glue_7         0x0800176c        0x0
 .glue_7        0x0800176c        0x0 linker stubs

.glue_7t        0x0800176c        0x0
 .glue_7t       0x0800176c        0x0 linker stubs

.vfp11_veneer   0x0800176c        0x0
 .vfp11_veneer  0x0800176c        0x0 linker stubs

.v4_bx          0x0800176c        0x0
 .v4_bx         0x0800176c        0x0 linker stubs

.iplt           0x0800176c        0x0
 .iplt          0x0800176c        0x0 C:\Users\luuph\AppData\Local\Temp\ccwuzsdv.o

.rel.dyn        0x0800176c        0x0
 .rel.iplt      0x0800176c        0x0 C:\Users\luuph\AppData\Local\Temp\ccwuzsdv.o

.data           0x20000000       0x6c load address 0x0800176c
                0x20000000                        . = ALIGN (0x4)
                0x20000000                        _sdata = .
 *(.data)
 .data          0x20000000       0x4c C:\Users\luuph\AppData\Local\Temp\ccwuzsdv.o
                0x20000000                Pwm_Configuration
                0x20000028                Adc_Configuration
 .data          0x2000004c       0x10 C:\Users\luuph\AppData\Local\Temp\ccBAbAQd.o
 .data          0x2000005c        0x0 C:\Users\luuph\AppData\Local\Temp\ccqsw4g2.o
 .data          0x2000005c       0x10 C:\Users\luuph\AppData\Local\Temp\ccDuUK4V.o
 .data          0x2000006c        0x0 C:\Users\luuph\AppData\Local\Temp\ccQ6YtHU.o
 .data          0x2000006c        0x0 C:\Users\luuph\AppData\Local\Temp\ccnzDAIT.o
 *(.data*)
                0x2000006c                        . = ALIGN (0x4)
                0x2000006c                        _edata = .
                0x0800176c                        _sidata = LOADADDR (.data)

.igot.plt       0x2000006c        0x0 load address 0x080017d8
 .igot.plt      0x2000006c        0x0 C:\Users\luuph\AppData\Local\Temp\ccwuzsdv.o

.bss            0x2000006c       0x90 load address 0x080017d8
                0x2000006c                        . = ALIGN (0x4)
                0x2000006c                        _sbss = .
 *(.bss)
 .bss           0x2000006c        0xc C:\Users\luuph\AppData\Local\Temp\ccwuzsdv.o
                0x2000006c                Count
                0x20000070                adcValueGr0
                0x20000074                adcValueGr4
 .bss           0x20000078        0x4 C:\Users\luuph\AppData\Local\Temp\ccBAbAQd.o
 .bss           0x2000007c        0x0 C:\Users\luuph\AppData\Local\Temp\ccqsw4g2.o
 .bss           0x2000007c        0x0 C:\Users\luuph\AppData\Local\Temp\ccDuUK4V.o
 .bss           0x2000007c        0x0 C:\Users\luuph\AppData\Local\Temp\ccQ6YtHU.o
 .bss           0x2000007c       0x80 C:\Users\luuph\AppData\Local\Temp\ccnzDAIT.o
 *(.bss*)
 *(COMMON)
                0x200000fc                        . = ALIGN (0x4)
                0x200000fc                        _ebss = .
                0x200000fc                        _sheap = .
                0x20005000                        _estack = (ORIGIN (RAM) + LENGTH (RAM))
OUTPUT(firmware.elf elf32-littlearm)
LOAD linker stubs

.debug_info     0x00000000     0x19ce
 .debug_info    0x00000000      0x728 C:\Users\luuph\AppData\Local\Temp\ccwuzsdv.o
 .debug_info    0x00000728      0x45d C:\Users\luuph\AppData\Local\Temp\ccBAbAQd.o
 .debug_info    0x00000b85      0x147 C:\Users\luuph\AppData\Local\Temp\ccqsw4g2.o
 .debug_info    0x00000ccc      0x38d C:\Users\luuph\AppData\Local\Temp\ccDuUK4V.o
 .debug_info    0x00001059      0x4a4 C:\Users\luuph\AppData\Local\Temp\ccQ6YtHU.o
 .debug_info    0x000014fd      0x4d1 C:\Users\luuph\AppData\Local\Temp\ccnzDAIT.o

.debug_abbrev   0x00000000      0x861
 .debug_abbrev  0x00000000      0x1b1 C:\Users\luuph\AppData\Local\Temp\ccwuzsdv.o
 .debug_abbrev  0x000001b1      0x153 C:\Users\luuph\AppData\Local\Temp\ccBAbAQd.o
 .debug_abbrev  0x00000304       0xe7 C:\Users\luuph\AppData\Local\Temp\ccqsw4g2.o
 .debug_abbrev  0x000003eb      0x17c C:\Users\luuph\AppData\Local\Temp\ccDuUK4V.o
 .debug_abbrev  0x00000567      0x16f C:\Users\luuph\AppData\Local\Temp\ccQ6YtHU.o
 .debug_abbrev  0x000006d6      0x18b C:\Users\luuph\AppData\Local\Temp\ccnzDAIT.o

.debug_aranges  0x00000000       0xc0
 .debug_aranges
                0x00000000       0x20 C:\Users\luuph\AppData\Local\Temp\ccwuzsdv.o
 .debug_aranges
                0x00000020       0x20 C:\Users\luuph\AppData\Local\Temp\ccBAbAQd.o
 .debug_aranges
                0x00000040       0x20 C:\Users\luuph\AppData\Local\Temp\ccqsw4g2.o
 .debug_aranges
                0x00000060       0x20 C:\Users\luuph\AppData\Local\Temp\ccDuUK4V.o
 .debug_aranges
                0x00000080       0x20 C:\Users\luuph\AppData\Local\Temp\ccQ6YtHU.o
 .debug_aranges
                0x000000a0       0x20 C:\Users\luuph\AppData\Local\Temp\ccnzDAIT.o

.debug_line     0x00000000     0x138b
 .debug_line    0x00000000      0x265 C:\Users\luuph\AppData\Local\Temp\ccwuzsdv.o
 .debug_line    0x00000265      0x2cd C:\Users\luuph\AppData\Local\Temp\ccBAbAQd.o
 .debug_line    0x00000532      0x154 C:\Users\luuph\AppData\Local\Temp\ccqsw4g2.o
 .debug_line    0x00000686      0x4ea C:\Users\luuph\AppData\Local\Temp\ccDuUK4V.o
 .debug_line    0x00000b70      0x4c2 C:\Users\luuph\AppData\Local\Temp\ccQ6YtHU.o
 .debug_line    0x00001032      0x359 C:\Users\luuph\AppData\Local\Temp\ccnzDAIT.o

.debug_str      0x00000000      0x9e9
 .debug_str     0x00000000      0x9e9 C:\Users\luuph\AppData\Local\Temp\ccwuzsdv.o
                                0x60a (size before relaxing)
 .debug_str     0x000009e9      0x360 C:\Users\luuph\AppData\Local\Temp\ccBAbAQd.o
 .debug_str     0x000009e9      0x18c C:\Users\luuph\AppData\Local\Temp\ccqsw4g2.o
 .debug_str     0x000009e9      0x315 C:\Users\luuph\AppData\Local\Temp\ccDuUK4V.o
 .debug_str     0x000009e9      0x379 C:\Users\luuph\AppData\Local\Temp\ccQ6YtHU.o
 .debug_str     0x000009e9      0x435 C:\Users\luuph\AppData\Local\Temp\ccnzDAIT.o

.comment        0x00000000       0x45
 .comment       0x00000000       0x45 C:\Users\luuph\AppData\Local\Temp\ccwuzsdv.o
                                 0x46 (size before relaxing)
 .comment       0x00000045       0x46 C:\Users\luuph\AppData\Local\Temp\ccBAbAQd.o
 .comment       0x00000045       0x46 C:\Users\luuph\AppData\Local\Temp\ccqsw4g2.o
 .comment       0x00000045       0x46 C:\Users\luuph\AppData\Local\Temp\ccDuUK4V.o
 .comment       0x00000045       0x46 C:\Users\luuph\AppData\Local\Temp\ccQ6YtHU.o
 .comment       0x00000045       0x46 C:\Users\luuph\AppData\Local\Temp\ccnzDAIT.o

.ARM.attributes
                0x00000000       0x2d
 .ARM.attributes
                0x00000000       0x2d C:\Users\luuph\AppData\Local\Temp\ccwuzsdv.o
 .ARM.attributes
                0x0000002d       0x2d C:\Users\luuph\AppData\Local\Temp\ccBAbAQd.o
 .ARM.attributes
                0x0000005a       0x2d C:\Users\luuph\AppData\Local\Temp\ccqsw4g2.o
 .ARM.attributes
                0x00000087       0x2d C:\Users\luuph\AppData\Local\Temp\ccDuUK4V.o
 .ARM.attributes
                0x000000b4       0x2d C:\Users\luuph\AppData\Local\Temp\ccQ6YtHU.o
 .ARM.attributes
                0x000000e1       0x2d C:\Users\luuph\AppData\Local\Temp\ccnzDAIT.o

.debug_frame    0x00000000      0x4b8
 .debug_frame   0x00000000       0x54 C:\Users\luuph\AppData\Local\Temp\ccwuzsdv.o
 .debug_frame   0x00000054      0x178 C:\Users\luuph\AppData\Local\Temp\ccBAbAQd.o
 .debug_frame   0x000001cc       0x48 C:\Users\luuph\AppData\Local\Temp\ccqsw4g2.o
 .debug_frame   0x00000214       0xec C:\Users\luuph\AppData\Local\Temp\ccDuUK4V.o
 .debug_frame   0x00000300      0x110 C:\Users\luuph\AppData\Local\Temp\ccQ6YtHU.o
 .debug_frame   0x00000410       0xa8 C:\Users\luuph\AppData\Local\Temp\ccnzDAIT.o
