
Memory Configuration

Name             Origin             Length             Attributes
FLASH            0x08000000         0x00010000         xr
RAM              0x20000000         0x00005000         xrw
*default*        0x00000000         0xffffffff

Linker script and memory map

LOAD C:\Users\PHUCLU~1\AppData\Local\Temp\ccSpV2Sr.o
LOAD C:\Users\PHUCLU~1\AppData\Local\Temp\cc78tpYG.o
LOAD C:\Users\PHUCLU~1\AppData\Local\Temp\ccmQVELZ.o
LOAD C:\Users\PHUCLU~1\AppData\Local\Temp\ccJrMHYq.o
LOAD C:\Users\PHUCLU~1\AppData\Local\Temp\ccAgSwyV.o
LOAD C:\Users\PHUCLU~1\AppData\Local\Temp\cclmUuGx.o

.isr_vector     0x08000000       0xe4
                0x08000000                . = ALIGN (0x4)
 *(.isr_vector)
 .isr_vector    0x08000000       0xe4 C:\Users\PHUCLU~1\AppData\Local\Temp\ccmQVELZ.o
                0x08000000                g_pfnVectors
                0x080000e4                . = ALIGN (0x4)

.text           0x080000e4     0x1704
                0x080000e4                . = ALIGN (0x4)
 *(.text)
 .text          0x080000e4      0x134 C:\Users\PHUCLU~1\AppData\Local\Temp\ccSpV2Sr.o
                0x080000e4                delay
                0x08000104                main
 .text          0x08000218      0x2c4 C:\Users\PHUCLU~1\AppData\Local\Temp\cc78tpYG.o
                0x08000218                Dio_ReadChannel
                0x08000264                Dio_WriteChannel
                0x080002f4                Dio_ReadPort
                0x08000318                Dio_WritePort
                0x08000344                Dio_ReadChannelGroup
                0x08000380                Dio_WriteChannelGroup
                0x080003d8                Dio_GetVersionInfo
                0x08000410                Dio_FlipChannel
                0x08000488                Dio_MaskedWritePort
 .text          0x080004dc       0x64 C:\Users\PHUCLU~1\AppData\Local\Temp\ccmQVELZ.o
                0x080004dc                Reset_Handler
                0x08000538                HardFault_Handler
                0x08000538                SysTick_Handler
                0x08000538                PVD_IRQHandler
                0x08000538                PendSV_Handler
                0x08000538                NMI_Handler
                0x08000538                EXTI0_IRQHandler
                0x08000538                UsageFault_Handler
                0x08000538                DebugMon_Handler
                0x08000538                TIM3_IRQHandler
                0x08000538                Default_Handler
                0x08000538                EXTI15_10_IRQHandler
                0x08000538                MemManage_Handler
                0x08000538                SVC_Handler
                0x08000538                WWDG_IRQHandler
                0x08000538                TIM2_IRQHandler
                0x08000538                EXTI1_IRQHandler
                0x08000538                BusFault_Handler
                0x08000538                USART1_IRQHandler
 .text          0x08000540      0x808 C:\Users\PHUCLU~1\AppData\Local\Temp\ccJrMHYq.o
                0x08000540                Port_Init
                0x0800071c                Port_SetPinDirection
                0x080009c4                Port_RefreshPortDirection
                0x08000bb8                Port_GetVersionInfo
                0x08000bca                Port_SetPinMode
 .text          0x08000d48      0x730 C:\Users\PHUCLU~1\AppData\Local\Temp\ccAgSwyV.o
                0x08000d48                get_CCRx
                0x08000d8c                Pwm_Init
                0x0800120c                Pwm_DeInit
                0x08001228                Pwm_SetDutyCycle
                0x080012e4                Pwm_SetPeriodAndDuty
                0x080013ac                Pwm_SetOutputToIdle
                0x08001410                Pwm_GetOutputState
 .text          0x08001478      0x35c C:\Users\PHUCLU~1\AppData\Local\Temp\cclmUuGx.o
                0x08001478                Adc_Init
                0x080015b8                Adc_SetupResultBuffer
                0x080015e8                Adc_DeInit
                0x08001624                Adc_StartGroupConversion
                0x08001784                Adc_StopGroupConversion
                0x080017bc                Adc_ReadGroup
 *(.text*)
 *(.rodata)
 .rodata        0x080017d4       0x14 C:\Users\PHUCLU~1\AppData\Local\Temp\ccSpV2Sr.o
                0x080017d4                Port_Configuration
 *(.rodata*)
                0x080017e8                . = ALIGN (0x4)
                0x080017e8                _etext = .

.glue_7         0x080017e8        0x0
 .glue_7        0x080017e8        0x0 linker stubs

.glue_7t        0x080017e8        0x0
 .glue_7t       0x080017e8        0x0 linker stubs

.vfp11_veneer   0x080017e8        0x0
 .vfp11_veneer  0x080017e8        0x0 linker stubs

.v4_bx          0x080017e8        0x0
 .v4_bx         0x080017e8        0x0 linker stubs

.iplt           0x080017e8        0x0
 .iplt          0x080017e8        0x0 C:\Users\PHUCLU~1\AppData\Local\Temp\ccSpV2Sr.o

.rel.dyn        0x080017e8        0x0
 .rel.iplt      0x080017e8        0x0 C:\Users\PHUCLU~1\AppData\Local\Temp\ccSpV2Sr.o

.data           0x20000000       0x64 load address 0x080017e8
                0x20000000                . = ALIGN (0x4)
                0x20000000                _sdata = .
 *(.data)
 .data          0x20000000       0x43 C:\Users\PHUCLU~1\AppData\Local\Temp\ccSpV2Sr.o
                0x20000000                Pwm_Configuration
                0x20000028                Adc_Configuration
 *fill*         0x20000043        0x1 
 .data          0x20000044       0x10 C:\Users\PHUCLU~1\AppData\Local\Temp\cc78tpYG.o
 .data          0x20000054        0x0 C:\Users\PHUCLU~1\AppData\Local\Temp\ccmQVELZ.o
 .data          0x20000054       0x10 C:\Users\PHUCLU~1\AppData\Local\Temp\ccJrMHYq.o
 .data          0x20000064        0x0 C:\Users\PHUCLU~1\AppData\Local\Temp\ccAgSwyV.o
 .data          0x20000064        0x0 C:\Users\PHUCLU~1\AppData\Local\Temp\cclmUuGx.o
 *(.data*)
                0x20000064                . = ALIGN (0x4)
                0x20000064                _edata = .
                0x080017e8                _sidata = LOADADDR (.data)

.igot.plt       0x20000064        0x0 load address 0x0800184c
 .igot.plt      0x20000064        0x0 C:\Users\PHUCLU~1\AppData\Local\Temp\ccSpV2Sr.o

.bss            0x20000064       0x90 load address 0x0800184c
                0x20000064                . = ALIGN (0x4)
                0x20000064                _sbss = .
 *(.bss)
 .bss           0x20000064        0xc C:\Users\PHUCLU~1\AppData\Local\Temp\ccSpV2Sr.o
                0x20000064                Count
                0x20000068                adcValueGr0
                0x2000006c                adcValueGr4
 .bss           0x20000070        0x4 C:\Users\PHUCLU~1\AppData\Local\Temp\cc78tpYG.o
 .bss           0x20000074        0x0 C:\Users\PHUCLU~1\AppData\Local\Temp\ccmQVELZ.o
 .bss           0x20000074        0x0 C:\Users\PHUCLU~1\AppData\Local\Temp\ccJrMHYq.o
 .bss           0x20000074        0x0 C:\Users\PHUCLU~1\AppData\Local\Temp\ccAgSwyV.o
 .bss           0x20000074       0x80 C:\Users\PHUCLU~1\AppData\Local\Temp\cclmUuGx.o
 *(.bss*)
 *(COMMON)
                0x200000f4                . = ALIGN (0x4)
                0x200000f4                _ebss = .
                0x200000f4                _sheap = .
                0x20005000                _estack = (ORIGIN (RAM) + LENGTH (RAM))
OUTPUT(firmware.elf elf32-littlearm)
LOAD linker stubs

.debug_info     0x00000000     0x1ab1
 .debug_info    0x00000000      0x6cc C:\Users\PHUCLU~1\AppData\Local\Temp\ccSpV2Sr.o
 .debug_info    0x000006cc      0x490 C:\Users\PHUCLU~1\AppData\Local\Temp\cc78tpYG.o
 .debug_info    0x00000b5c      0x14c C:\Users\PHUCLU~1\AppData\Local\Temp\ccmQVELZ.o
 .debug_info    0x00000ca8      0x3b5 C:\Users\PHUCLU~1\AppData\Local\Temp\ccJrMHYq.o
 .debug_info    0x0000105d      0x4f6 C:\Users\PHUCLU~1\AppData\Local\Temp\ccAgSwyV.o
 .debug_info    0x00001553      0x55e C:\Users\PHUCLU~1\AppData\Local\Temp\cclmUuGx.o

.debug_abbrev   0x00000000      0x7d9
 .debug_abbrev  0x00000000      0x169 C:\Users\PHUCLU~1\AppData\Local\Temp\ccSpV2Sr.o
 .debug_abbrev  0x00000169      0x14b C:\Users\PHUCLU~1\AppData\Local\Temp\cc78tpYG.o
 .debug_abbrev  0x000002b4       0xcf C:\Users\PHUCLU~1\AppData\Local\Temp\ccmQVELZ.o
 .debug_abbrev  0x00000383      0x170 C:\Users\PHUCLU~1\AppData\Local\Temp\ccJrMHYq.o
 .debug_abbrev  0x000004f3      0x167 C:\Users\PHUCLU~1\AppData\Local\Temp\ccAgSwyV.o
 .debug_abbrev  0x0000065a      0x17f C:\Users\PHUCLU~1\AppData\Local\Temp\cclmUuGx.o

.debug_aranges  0x00000000       0xc0
 .debug_aranges
                0x00000000       0x20 C:\Users\PHUCLU~1\AppData\Local\Temp\ccSpV2Sr.o
 .debug_aranges
                0x00000020       0x20 C:\Users\PHUCLU~1\AppData\Local\Temp\cc78tpYG.o
 .debug_aranges
                0x00000040       0x20 C:\Users\PHUCLU~1\AppData\Local\Temp\ccmQVELZ.o
 .debug_aranges
                0x00000060       0x20 C:\Users\PHUCLU~1\AppData\Local\Temp\ccJrMHYq.o
 .debug_aranges
                0x00000080       0x20 C:\Users\PHUCLU~1\AppData\Local\Temp\ccAgSwyV.o
 .debug_aranges
                0x000000a0       0x20 C:\Users\PHUCLU~1\AppData\Local\Temp\cclmUuGx.o

.debug_line     0x00000000     0x13bb
 .debug_line    0x00000000      0x236 C:\Users\PHUCLU~1\AppData\Local\Temp\ccSpV2Sr.o
 .debug_line    0x00000236      0x2f3 C:\Users\PHUCLU~1\AppData\Local\Temp\cc78tpYG.o
 .debug_line    0x00000529      0x186 C:\Users\PHUCLU~1\AppData\Local\Temp\ccmQVELZ.o
 .debug_line    0x000006af      0x510 C:\Users\PHUCLU~1\AppData\Local\Temp\ccJrMHYq.o
 .debug_line    0x00000bbf      0x4b4 C:\Users\PHUCLU~1\AppData\Local\Temp\ccAgSwyV.o
 .debug_line    0x00001073      0x348 C:\Users\PHUCLU~1\AppData\Local\Temp\cclmUuGx.o

.debug_str      0x00000000      0xa29
 .debug_str     0x00000000      0x548 C:\Users\PHUCLU~1\AppData\Local\Temp\ccSpV2Sr.o
                                0x5ac (size before relaxing)
 .debug_str     0x00000548      0x1d5 C:\Users\PHUCLU~1\AppData\Local\Temp\cc78tpYG.o
                                0x37a (size before relaxing)
 .debug_str     0x0000071d       0x70 C:\Users\PHUCLU~1\AppData\Local\Temp\ccmQVELZ.o
                                0x1a1 (size before relaxing)
 .debug_str     0x0000078d       0xc2 C:\Users\PHUCLU~1\AppData\Local\Temp\ccJrMHYq.o
                                0x32f (size before relaxing)
 .debug_str     0x0000084f       0xfc C:\Users\PHUCLU~1\AppData\Local\Temp\ccAgSwyV.o
                                0x393 (size before relaxing)
 .debug_str     0x0000094b       0xde C:\Users\PHUCLU~1\AppData\Local\Temp\cclmUuGx.o
                                0x475 (size before relaxing)

.comment        0x00000000       0x49
 .comment       0x00000000       0x49 C:\Users\PHUCLU~1\AppData\Local\Temp\ccSpV2Sr.o
                                 0x4a (size before relaxing)
 .comment       0x00000049       0x4a C:\Users\PHUCLU~1\AppData\Local\Temp\cc78tpYG.o
 .comment       0x00000049       0x4a C:\Users\PHUCLU~1\AppData\Local\Temp\ccmQVELZ.o
 .comment       0x00000049       0x4a C:\Users\PHUCLU~1\AppData\Local\Temp\ccJrMHYq.o
 .comment       0x00000049       0x4a C:\Users\PHUCLU~1\AppData\Local\Temp\ccAgSwyV.o
 .comment       0x00000049       0x4a C:\Users\PHUCLU~1\AppData\Local\Temp\cclmUuGx.o

.ARM.attributes
                0x00000000       0x2d
 .ARM.attributes
                0x00000000       0x2d C:\Users\PHUCLU~1\AppData\Local\Temp\ccSpV2Sr.o
 .ARM.attributes
                0x0000002d       0x2d C:\Users\PHUCLU~1\AppData\Local\Temp\cc78tpYG.o
 .ARM.attributes
                0x0000005a       0x2d C:\Users\PHUCLU~1\AppData\Local\Temp\ccmQVELZ.o
 .ARM.attributes
                0x00000087       0x2d C:\Users\PHUCLU~1\AppData\Local\Temp\ccJrMHYq.o
 .ARM.attributes
                0x000000b4       0x2d C:\Users\PHUCLU~1\AppData\Local\Temp\ccAgSwyV.o
 .ARM.attributes
                0x000000e1       0x2d C:\Users\PHUCLU~1\AppData\Local\Temp\cclmUuGx.o

.debug_frame    0x00000000      0x508
 .debug_frame   0x00000000       0x54 C:\Users\PHUCLU~1\AppData\Local\Temp\ccSpV2Sr.o
 .debug_frame   0x00000054      0x178 C:\Users\PHUCLU~1\AppData\Local\Temp\cc78tpYG.o
 .debug_frame   0x000001cc       0x48 C:\Users\PHUCLU~1\AppData\Local\Temp\ccmQVELZ.o
 .debug_frame   0x00000214       0xec C:\Users\PHUCLU~1\AppData\Local\Temp\ccJrMHYq.o
 .debug_frame   0x00000300      0x110 C:\Users\PHUCLU~1\AppData\Local\Temp\ccAgSwyV.o
 .debug_frame   0x00000410       0xf8 C:\Users\PHUCLU~1\AppData\Local\Temp\cclmUuGx.o
