
There are no discarded input sections

Memory Configuration

Name             Origin             Length             Attributes
FLASH            0x08000000         0x00010000         xr
RAM              0x20000000         0x00005000         xrw
*default*        0x00000000         0xffffffff

Linker script and memory map

LOAD C:\Users\luuph\AppData\Local\Temp\ccsB3oui.o
LOAD C:\Users\luuph\AppData\Local\Temp\ccq4vdfw.o
LOAD C:\Users\luuph\AppData\Local\Temp\cckPs0TN.o
LOAD C:\Users\luuph\AppData\Local\Temp\ccuGG8U9.o
LOAD C:\Users\luuph\AppData\Local\Temp\cc6ZpNiC.o
LOAD C:\Users\luuph\AppData\Local\Temp\ccKuqUHd.o

.isr_vector     0x08000000       0xe4
                0x08000000                        . = ALIGN (0x4)
 *(.isr_vector)
 .isr_vector    0x08000000       0xe4 C:\Users\luuph\AppData\Local\Temp\cckPs0TN.o
                0x08000000                g_pfnVectors
                0x080000e4                        . = ALIGN (0x4)

.text           0x080000e4     0x16ec
                0x080000e4                        . = ALIGN (0x4)
 *(.text)
 .text          0x080000e4      0x118 C:\Users\luuph\AppData\Local\Temp\ccsB3oui.o
                0x080000e4                delay
                0x08000104                main
 .text          0x080001fc      0x2c4 C:\Users\luuph\AppData\Local\Temp\ccq4vdfw.o
                0x080001fc                Dio_ReadChannel
                0x08000248                Dio_WriteChannel
                0x080002d8                Dio_ReadPort
                0x080002fc                Dio_WritePort
                0x08000328                Dio_ReadChannelGroup
                0x08000364                Dio_WriteChannelGroup
                0x080003bc                Dio_GetVersionInfo
                0x080003f4                Dio_FlipChannel
                0x0800046c                Dio_MaskedWritePort
 .text          0x080004c0       0x64 C:\Users\luuph\AppData\Local\Temp\cckPs0TN.o
                0x080004c0                Reset_Handler
                0x0800051c                HardFault_Handler
                0x0800051c                SysTick_Handler
                0x0800051c                PVD_IRQHandler
                0x0800051c                PendSV_Handler
                0x0800051c                NMI_Handler
                0x0800051c                EXTI0_IRQHandler
                0x0800051c                UsageFault_Handler
                0x0800051c                DebugMon_Handler
                0x0800051c                TIM3_IRQHandler
                0x0800051c                Default_Handler
                0x0800051c                EXTI15_10_IRQHandler
                0x0800051c                MemManage_Handler
                0x0800051c                SVC_Handler
                0x0800051c                WWDG_IRQHandler
                0x0800051c                TIM2_IRQHandler
                0x0800051c                EXTI1_IRQHandler
                0x0800051c                BusFault_Handler
                0x0800051c                USART1_IRQHandler
 .text          0x08000524      0x808 C:\Users\luuph\AppData\Local\Temp\ccuGG8U9.o
                0x08000524                Port_Init
                0x08000700                Port_SetPinDirection
                0x080009a8                Port_RefreshPortDirection
                0x08000b9c                Port_GetVersionInfo
                0x08000bae                Port_SetPinMode
 .text          0x08000d2c      0x738 C:\Users\luuph\AppData\Local\Temp\cc6ZpNiC.o
                0x08000d2c                get_CCRx
                0x08000d70                Pwm_Init
                0x080011f0                Pwm_DeInit
                0x08001214                Pwm_SetDutyCycle
                0x080012d0                Pwm_SetPeriodAndDuty
                0x08001398                Pwm_SetOutputToIdle
                0x080013fc                Pwm_GetOutputState
 .text          0x08001464      0x358 C:\Users\luuph\AppData\Local\Temp\ccKuqUHd.o
                0x08001464                Adc_Init
                0x080015a0                Adc_SetupResultBuffer
                0x080015d0                Adc_DeInit
                0x0800160c                Adc_StartGroupConversion
                0x0800176c                Adc_StopGroupConversion
                0x080017a4                Adc_ReadGroup
 *(.text*)
 *(.rodata)
 .rodata        0x080017bc       0x14 C:\Users\luuph\AppData\Local\Temp\ccsB3oui.o
                0x080017bc                Port_Configuration
 *(.rodata*)
                0x080017d0                        . = ALIGN (0x4)
                0x080017d0                        _etext = .

.glue_7         0x080017d0        0x0
 .glue_7        0x080017d0        0x0 linker stubs

.glue_7t        0x080017d0        0x0
 .glue_7t       0x080017d0        0x0 linker stubs

.vfp11_veneer   0x080017d0        0x0
 .vfp11_veneer  0x080017d0        0x0 linker stubs

.v4_bx          0x080017d0        0x0
 .v4_bx         0x080017d0        0x0 linker stubs

.iplt           0x080017d0        0x0
 .iplt          0x080017d0        0x0 C:\Users\luuph\AppData\Local\Temp\ccsB3oui.o

.rel.dyn        0x080017d0        0x0
 .rel.iplt      0x080017d0        0x0 C:\Users\luuph\AppData\Local\Temp\ccsB3oui.o

.data           0x20000000       0x6c load address 0x080017d0
                0x20000000                        . = ALIGN (0x4)
                0x20000000                        _sdata = .
 *(.data)
 .data          0x20000000       0x4c C:\Users\luuph\AppData\Local\Temp\ccsB3oui.o
                0x20000000                Pwm_Configuration
                0x20000028                Adc_Configuration
 .data          0x2000004c       0x10 C:\Users\luuph\AppData\Local\Temp\ccq4vdfw.o
 .data          0x2000005c        0x0 C:\Users\luuph\AppData\Local\Temp\cckPs0TN.o
 .data          0x2000005c       0x10 C:\Users\luuph\AppData\Local\Temp\ccuGG8U9.o
 .data          0x2000006c        0x0 C:\Users\luuph\AppData\Local\Temp\cc6ZpNiC.o
 .data          0x2000006c        0x0 C:\Users\luuph\AppData\Local\Temp\ccKuqUHd.o
 *(.data*)
                0x2000006c                        . = ALIGN (0x4)
                0x2000006c                        _edata = .
                0x080017d0                        _sidata = LOADADDR (.data)

.igot.plt       0x2000006c        0x0 load address 0x0800183c
 .igot.plt      0x2000006c        0x0 C:\Users\luuph\AppData\Local\Temp\ccsB3oui.o

.bss            0x2000006c       0xa8 load address 0x0800183c
                0x2000006c                        . = ALIGN (0x4)
                0x2000006c                        _sbss = .
 *(.bss)
 .bss           0x2000006c       0x24 C:\Users\luuph\AppData\Local\Temp\ccsB3oui.o
                0x2000006c                Count
                0x20000070                adcValue
 .bss           0x20000090        0x4 C:\Users\luuph\AppData\Local\Temp\ccq4vdfw.o
 .bss           0x20000094        0x0 C:\Users\luuph\AppData\Local\Temp\cckPs0TN.o
 .bss           0x20000094        0x0 C:\Users\luuph\AppData\Local\Temp\ccuGG8U9.o
 .bss           0x20000094        0x0 C:\Users\luuph\AppData\Local\Temp\cc6ZpNiC.o
 .bss           0x20000094       0x80 C:\Users\luuph\AppData\Local\Temp\ccKuqUHd.o
 *(.bss*)
 *(COMMON)
                0x20000114                        . = ALIGN (0x4)
                0x20000114                        _ebss = .
                0x20000114                        _sheap = .
                0x20005000                        _estack = (ORIGIN (RAM) + LENGTH (RAM))
OUTPUT(firmware.elf elf32-littlearm)
LOAD linker stubs

.debug_info     0x00000000     0x1a24
 .debug_info    0x00000000      0x728 C:\Users\luuph\AppData\Local\Temp\ccsB3oui.o
 .debug_info    0x00000728      0x45d C:\Users\luuph\AppData\Local\Temp\ccq4vdfw.o
 .debug_info    0x00000b85      0x147 C:\Users\luuph\AppData\Local\Temp\cckPs0TN.o
 .debug_info    0x00000ccc      0x38d C:\Users\luuph\AppData\Local\Temp\ccuGG8U9.o
 .debug_info    0x00001059      0x4a4 C:\Users\luuph\AppData\Local\Temp\cc6ZpNiC.o
 .debug_info    0x000014fd      0x527 C:\Users\luuph\AppData\Local\Temp\ccKuqUHd.o

.debug_abbrev   0x00000000      0x863
 .debug_abbrev  0x00000000      0x1b1 C:\Users\luuph\AppData\Local\Temp\ccsB3oui.o
 .debug_abbrev  0x000001b1      0x153 C:\Users\luuph\AppData\Local\Temp\ccq4vdfw.o
 .debug_abbrev  0x00000304       0xe7 C:\Users\luuph\AppData\Local\Temp\cckPs0TN.o
 .debug_abbrev  0x000003eb      0x17c C:\Users\luuph\AppData\Local\Temp\ccuGG8U9.o
 .debug_abbrev  0x00000567      0x16f C:\Users\luuph\AppData\Local\Temp\cc6ZpNiC.o
 .debug_abbrev  0x000006d6      0x18d C:\Users\luuph\AppData\Local\Temp\ccKuqUHd.o

.debug_aranges  0x00000000       0xc0
 .debug_aranges
                0x00000000       0x20 C:\Users\luuph\AppData\Local\Temp\ccsB3oui.o
 .debug_aranges
                0x00000020       0x20 C:\Users\luuph\AppData\Local\Temp\ccq4vdfw.o
 .debug_aranges
                0x00000040       0x20 C:\Users\luuph\AppData\Local\Temp\cckPs0TN.o
 .debug_aranges
                0x00000060       0x20 C:\Users\luuph\AppData\Local\Temp\ccuGG8U9.o
 .debug_aranges
                0x00000080       0x20 C:\Users\luuph\AppData\Local\Temp\cc6ZpNiC.o
 .debug_aranges
                0x000000a0       0x20 C:\Users\luuph\AppData\Local\Temp\ccKuqUHd.o

.debug_line     0x00000000     0x139c
 .debug_line    0x00000000      0x260 C:\Users\luuph\AppData\Local\Temp\ccsB3oui.o
 .debug_line    0x00000260      0x2cd C:\Users\luuph\AppData\Local\Temp\ccq4vdfw.o
 .debug_line    0x0000052d      0x154 C:\Users\luuph\AppData\Local\Temp\cckPs0TN.o
 .debug_line    0x00000681      0x4ea C:\Users\luuph\AppData\Local\Temp\ccuGG8U9.o
 .debug_line    0x00000b6b      0x4c2 C:\Users\luuph\AppData\Local\Temp\cc6ZpNiC.o
 .debug_line    0x0000102d      0x36f C:\Users\luuph\AppData\Local\Temp\ccKuqUHd.o

.debug_str      0x00000000      0xa00
 .debug_str     0x00000000      0xa00 C:\Users\luuph\AppData\Local\Temp\ccsB3oui.o
                                0x613 (size before relaxing)
 .debug_str     0x00000a00      0x360 C:\Users\luuph\AppData\Local\Temp\ccq4vdfw.o
 .debug_str     0x00000a00      0x18c C:\Users\luuph\AppData\Local\Temp\cckPs0TN.o
 .debug_str     0x00000a00      0x315 C:\Users\luuph\AppData\Local\Temp\ccuGG8U9.o
 .debug_str     0x00000a00      0x379 C:\Users\luuph\AppData\Local\Temp\cc6ZpNiC.o
 .debug_str     0x00000a00      0x45b C:\Users\luuph\AppData\Local\Temp\ccKuqUHd.o

.comment        0x00000000       0x45
 .comment       0x00000000       0x45 C:\Users\luuph\AppData\Local\Temp\ccsB3oui.o
                                 0x46 (size before relaxing)
 .comment       0x00000045       0x46 C:\Users\luuph\AppData\Local\Temp\ccq4vdfw.o
 .comment       0x00000045       0x46 C:\Users\luuph\AppData\Local\Temp\cckPs0TN.o
 .comment       0x00000045       0x46 C:\Users\luuph\AppData\Local\Temp\ccuGG8U9.o
 .comment       0x00000045       0x46 C:\Users\luuph\AppData\Local\Temp\cc6ZpNiC.o
 .comment       0x00000045       0x46 C:\Users\luuph\AppData\Local\Temp\ccKuqUHd.o

.ARM.attributes
                0x00000000       0x2d
 .ARM.attributes
                0x00000000       0x2d C:\Users\luuph\AppData\Local\Temp\ccsB3oui.o
 .ARM.attributes
                0x0000002d       0x2d C:\Users\luuph\AppData\Local\Temp\ccq4vdfw.o
 .ARM.attributes
                0x0000005a       0x2d C:\Users\luuph\AppData\Local\Temp\cckPs0TN.o
 .ARM.attributes
                0x00000087       0x2d C:\Users\luuph\AppData\Local\Temp\ccuGG8U9.o
 .ARM.attributes
                0x000000b4       0x2d C:\Users\luuph\AppData\Local\Temp\cc6ZpNiC.o
 .ARM.attributes
                0x000000e1       0x2d C:\Users\luuph\AppData\Local\Temp\ccKuqUHd.o

.debug_frame    0x00000000      0x508
 .debug_frame   0x00000000       0x54 C:\Users\luuph\AppData\Local\Temp\ccsB3oui.o
 .debug_frame   0x00000054      0x178 C:\Users\luuph\AppData\Local\Temp\ccq4vdfw.o
 .debug_frame   0x000001cc       0x48 C:\Users\luuph\AppData\Local\Temp\cckPs0TN.o
 .debug_frame   0x00000214       0xec C:\Users\luuph\AppData\Local\Temp\ccuGG8U9.o
 .debug_frame   0x00000300      0x110 C:\Users\luuph\AppData\Local\Temp\cc6ZpNiC.o
 .debug_frame   0x00000410       0xf8 C:\Users\luuph\AppData\Local\Temp\ccKuqUHd.o
