
There are no discarded input sections

Memory Configuration

Name             Origin             Length             Attributes
FLASH            0x08000000         0x00010000         xr
RAM              0x20000000         0x00005000         xrw
*default*        0x00000000         0xffffffff

Linker script and memory map

LOAD C:\Users\luuph\AppData\Local\Temp\cc24x7L2.o
LOAD C:\Users\luuph\AppData\Local\Temp\cctexWix.o
LOAD C:\Users\luuph\AppData\Local\Temp\ccc9dGc8.o
LOAD C:\Users\luuph\AppData\Local\Temp\ccRRDdFM.o
LOAD C:\Users\luuph\AppData\Local\Temp\ccWZHENw.o
LOAD C:\Users\luuph\AppData\Local\Temp\ccr5HX8j.o

.isr_vector     0x08000000       0xe4
                0x08000000                        . = ALIGN (0x4)
 *(.isr_vector)
 .isr_vector    0x08000000       0xe4 C:\Users\luuph\AppData\Local\Temp\ccc9dGc8.o
                0x08000000                g_pfnVectors
                0x080000e4                        . = ALIGN (0x4)

.text           0x080000e4     0x1c14
                0x080000e4                        . = ALIGN (0x4)
 *(.text)
 .text          0x080000e4      0x128 C:\Users\luuph\AppData\Local\Temp\cc24x7L2.o
                0x080000e4                delay
                0x08000104                main
 .text          0x0800020c      0x2c4 C:\Users\luuph\AppData\Local\Temp\cctexWix.o
                0x0800020c                Dio_ReadChannel
                0x08000258                Dio_WriteChannel
                0x080002e8                Dio_ReadPort
                0x0800030c                Dio_WritePort
                0x08000338                Dio_ReadChannelGroup
                0x08000374                Dio_WriteChannelGroup
                0x080003cc                Dio_GetVersionInfo
                0x08000404                Dio_FlipChannel
                0x0800047c                Dio_MaskedWritePort
 .text          0x080004d0       0x64 C:\Users\luuph\AppData\Local\Temp\ccc9dGc8.o
                0x080004d0                Reset_Handler
                0x0800052c                HardFault_Handler
                0x0800052c                SysTick_Handler
                0x0800052c                PVD_IRQHandler
                0x0800052c                PendSV_Handler
                0x0800052c                NMI_Handler
                0x0800052c                EXTI0_IRQHandler
                0x0800052c                UsageFault_Handler
                0x0800052c                DebugMon_Handler
                0x0800052c                TIM3_IRQHandler
                0x0800052c                Default_Handler
                0x0800052c                EXTI15_10_IRQHandler
                0x0800052c                MemManage_Handler
                0x0800052c                SVC_Handler
                0x0800052c                WWDG_IRQHandler
                0x0800052c                TIM2_IRQHandler
                0x0800052c                EXTI1_IRQHandler
                0x0800052c                BusFault_Handler
                0x0800052c                USART1_IRQHandler
 .text          0x08000534      0x808 C:\Users\luuph\AppData\Local\Temp\ccRRDdFM.o
                0x08000534                Port_Init
                0x08000710                Port_SetPinDirection
                0x080009b8                Port_RefreshPortDirection
                0x08000bac                Port_GetVersionInfo
                0x08000bbe                Port_SetPinMode
 .text          0x08000d3c      0x738 C:\Users\luuph\AppData\Local\Temp\ccWZHENw.o
                0x08000d3c                get_CCRx
                0x08000d80                Pwm_Init
                0x08001200                Pwm_DeInit
                0x08001224                Pwm_SetDutyCycle
                0x080012e0                Pwm_SetPeriodAndDuty
                0x080013a8                Pwm_SetOutputToIdle
                0x0800140c                Pwm_GetOutputState
 .text          0x08001474      0x870 C:\Users\luuph\AppData\Local\Temp\ccr5HX8j.o
                0x08001474                Adc_Init
                0x0800154c                Adc_DeInit
                0x08001588                Adc_SetupResultBuffer
                0x08001618                Adc_StartGroupConversion
                0x08001be8                Adc_StopGroupConversion
                0x08001c20                Adc_ReadGroup
 *(.text*)
 *(.rodata)
 .rodata        0x08001ce4       0x14 C:\Users\luuph\AppData\Local\Temp\cc24x7L2.o
                0x08001ce4                Port_Configuration
 *(.rodata*)
                0x08001cf8                        . = ALIGN (0x4)
                0x08001cf8                        _etext = .

.glue_7         0x08001cf8        0x0
 .glue_7        0x08001cf8        0x0 linker stubs

.glue_7t        0x08001cf8        0x0
 .glue_7t       0x08001cf8        0x0 linker stubs

.vfp11_veneer   0x08001cf8        0x0
 .vfp11_veneer  0x08001cf8        0x0 linker stubs

.v4_bx          0x08001cf8        0x0
 .v4_bx         0x08001cf8        0x0 linker stubs

.iplt           0x08001cf8        0x0
 .iplt          0x08001cf8        0x0 C:\Users\luuph\AppData\Local\Temp\cc24x7L2.o

.rel.dyn        0x08001cf8        0x0
 .rel.iplt      0x08001cf8        0x0 C:\Users\luuph\AppData\Local\Temp\cc24x7L2.o

.data           0x20000000       0x68 load address 0x08001cf8
                0x20000000                        . = ALIGN (0x4)
                0x20000000                        _sdata = .
 *(.data)
 .data          0x20000000       0x40 C:\Users\luuph\AppData\Local\Temp\cc24x7L2.o
                0x20000000                Adc_Group0_List
                0x20000004                Adc_Group0_Reference
                0x20000008                Adc_Group1_List
                0x2000000c                Adc_Group1_Reference
                0x20000010                Adc_Common_Configuration
                0x20000018                Adc_Configuration
 .data          0x20000040       0x10 C:\Users\luuph\AppData\Local\Temp\cctexWix.o
 .data          0x20000050        0x0 C:\Users\luuph\AppData\Local\Temp\ccc9dGc8.o
 .data          0x20000050       0x10 C:\Users\luuph\AppData\Local\Temp\ccRRDdFM.o
 .data          0x20000060        0x0 C:\Users\luuph\AppData\Local\Temp\ccWZHENw.o
 .data          0x20000060        0x8 C:\Users\luuph\AppData\Local\Temp\ccr5HX8j.o
 *(.data*)
                0x20000068                        . = ALIGN (0x4)
                0x20000068                        _edata = .
                0x08001cf8                        _sidata = LOADADDR (.data)

.igot.plt       0x20000068        0x0 load address 0x08001d60
 .igot.plt      0x20000068        0x0 C:\Users\luuph\AppData\Local\Temp\cc24x7L2.o

.bss            0x20000068       0x24 load address 0x08001d60
                0x20000068                        . = ALIGN (0x4)
                0x20000068                        _sbss = .
 *(.bss)
 .bss           0x20000068       0x14 C:\Users\luuph\AppData\Local\Temp\cc24x7L2.o
                0x20000068                Count
                0x2000006c                adcValue
                0x20000070                adcValue0
                0x20000074                adcValue1
                0x20000078                adcValueGroup0
 .bss           0x2000007c        0x4 C:\Users\luuph\AppData\Local\Temp\cctexWix.o
 .bss           0x20000080        0x0 C:\Users\luuph\AppData\Local\Temp\ccc9dGc8.o
 .bss           0x20000080        0x0 C:\Users\luuph\AppData\Local\Temp\ccRRDdFM.o
 .bss           0x20000080        0x0 C:\Users\luuph\AppData\Local\Temp\ccWZHENw.o
 .bss           0x20000080        0xc C:\Users\luuph\AppData\Local\Temp\ccr5HX8j.o
 *(.bss*)
 *(COMMON)
                0x2000008c                        . = ALIGN (0x4)
                0x2000008c                        _ebss = .
                0x2000008c                        _sheap = .
                0x20005000                        _estack = (ORIGIN (RAM) + LENGTH (RAM))
OUTPUT(firmware.elf elf32-littlearm)
LOAD linker stubs

.debug_info     0x00000000     0x1b2f
 .debug_info    0x00000000      0x732 C:\Users\luuph\AppData\Local\Temp\cc24x7L2.o
 .debug_info    0x00000732      0x45d C:\Users\luuph\AppData\Local\Temp\cctexWix.o
 .debug_info    0x00000b8f      0x147 C:\Users\luuph\AppData\Local\Temp\ccc9dGc8.o
 .debug_info    0x00000cd6      0x38d C:\Users\luuph\AppData\Local\Temp\ccRRDdFM.o
 .debug_info    0x00001063      0x4a0 C:\Users\luuph\AppData\Local\Temp\ccWZHENw.o
 .debug_info    0x00001503      0x62c C:\Users\luuph\AppData\Local\Temp\ccr5HX8j.o

.debug_abbrev   0x00000000      0x88c
 .debug_abbrev  0x00000000      0x1b3 C:\Users\luuph\AppData\Local\Temp\cc24x7L2.o
 .debug_abbrev  0x000001b3      0x153 C:\Users\luuph\AppData\Local\Temp\cctexWix.o
 .debug_abbrev  0x00000306       0xe7 C:\Users\luuph\AppData\Local\Temp\ccc9dGc8.o
 .debug_abbrev  0x000003ed      0x17c C:\Users\luuph\AppData\Local\Temp\ccRRDdFM.o
 .debug_abbrev  0x00000569      0x170 C:\Users\luuph\AppData\Local\Temp\ccWZHENw.o
 .debug_abbrev  0x000006d9      0x1b3 C:\Users\luuph\AppData\Local\Temp\ccr5HX8j.o

.debug_aranges  0x00000000       0xc0
 .debug_aranges
                0x00000000       0x20 C:\Users\luuph\AppData\Local\Temp\cc24x7L2.o
 .debug_aranges
                0x00000020       0x20 C:\Users\luuph\AppData\Local\Temp\cctexWix.o
 .debug_aranges
                0x00000040       0x20 C:\Users\luuph\AppData\Local\Temp\ccc9dGc8.o
 .debug_aranges
                0x00000060       0x20 C:\Users\luuph\AppData\Local\Temp\ccRRDdFM.o
 .debug_aranges
                0x00000080       0x20 C:\Users\luuph\AppData\Local\Temp\ccWZHENw.o
 .debug_aranges
                0x000000a0       0x20 C:\Users\luuph\AppData\Local\Temp\ccr5HX8j.o

.debug_line     0x00000000     0x1638
 .debug_line    0x00000000      0x251 C:\Users\luuph\AppData\Local\Temp\cc24x7L2.o
 .debug_line    0x00000251      0x2cd C:\Users\luuph\AppData\Local\Temp\cctexWix.o
 .debug_line    0x0000051e      0x154 C:\Users\luuph\AppData\Local\Temp\ccc9dGc8.o
 .debug_line    0x00000672      0x4ea C:\Users\luuph\AppData\Local\Temp\ccRRDdFM.o
 .debug_line    0x00000b5c      0x4c2 C:\Users\luuph\AppData\Local\Temp\ccWZHENw.o
 .debug_line    0x0000101e      0x61a C:\Users\luuph\AppData\Local\Temp\ccr5HX8j.o

.debug_str      0x00000000      0xb08
 .debug_str     0x00000000      0xb08 C:\Users\luuph\AppData\Local\Temp\cc24x7L2.o
                                0x5e9 (size before relaxing)
 .debug_str     0x00000b08      0x360 C:\Users\luuph\AppData\Local\Temp\cctexWix.o
 .debug_str     0x00000b08      0x18c C:\Users\luuph\AppData\Local\Temp\ccc9dGc8.o
 .debug_str     0x00000b08      0x315 C:\Users\luuph\AppData\Local\Temp\ccRRDdFM.o
 .debug_str     0x00000b08      0x379 C:\Users\luuph\AppData\Local\Temp\ccWZHENw.o
 .debug_str     0x00000b08      0x52a C:\Users\luuph\AppData\Local\Temp\ccr5HX8j.o

.comment        0x00000000       0x45
 .comment       0x00000000       0x45 C:\Users\luuph\AppData\Local\Temp\cc24x7L2.o
                                 0x46 (size before relaxing)
 .comment       0x00000045       0x46 C:\Users\luuph\AppData\Local\Temp\cctexWix.o
 .comment       0x00000045       0x46 C:\Users\luuph\AppData\Local\Temp\ccc9dGc8.o
 .comment       0x00000045       0x46 C:\Users\luuph\AppData\Local\Temp\ccRRDdFM.o
 .comment       0x00000045       0x46 C:\Users\luuph\AppData\Local\Temp\ccWZHENw.o
 .comment       0x00000045       0x46 C:\Users\luuph\AppData\Local\Temp\ccr5HX8j.o

.ARM.attributes
                0x00000000       0x2d
 .ARM.attributes
                0x00000000       0x2d C:\Users\luuph\AppData\Local\Temp\cc24x7L2.o
 .ARM.attributes
                0x0000002d       0x2d C:\Users\luuph\AppData\Local\Temp\cctexWix.o
 .ARM.attributes
                0x0000005a       0x2d C:\Users\luuph\AppData\Local\Temp\ccc9dGc8.o
 .ARM.attributes
                0x00000087       0x2d C:\Users\luuph\AppData\Local\Temp\ccRRDdFM.o
 .ARM.attributes
                0x000000b4       0x2d C:\Users\luuph\AppData\Local\Temp\ccWZHENw.o
 .ARM.attributes
                0x000000e1       0x2d C:\Users\luuph\AppData\Local\Temp\ccr5HX8j.o

.debug_frame    0x00000000      0x50c
 .debug_frame   0x00000000       0x54 C:\Users\luuph\AppData\Local\Temp\cc24x7L2.o
 .debug_frame   0x00000054      0x178 C:\Users\luuph\AppData\Local\Temp\cctexWix.o
 .debug_frame   0x000001cc       0x48 C:\Users\luuph\AppData\Local\Temp\ccc9dGc8.o
 .debug_frame   0x00000214       0xec C:\Users\luuph\AppData\Local\Temp\ccRRDdFM.o
 .debug_frame   0x00000300      0x110 C:\Users\luuph\AppData\Local\Temp\ccWZHENw.o
 .debug_frame   0x00000410       0xfc C:\Users\luuph\AppData\Local\Temp\ccr5HX8j.o
