
There are no discarded input sections

Memory Configuration

Name             Origin             Length             Attributes
FLASH            0x08000000         0x00010000         xr
RAM              0x20000000         0x00005000         xrw
*default*        0x00000000         0xffffffff

Linker script and memory map

LOAD C:\Users\luuph\AppData\Local\Temp\ccW2PXJP.o
LOAD C:\Users\luuph\AppData\Local\Temp\ccuuvjfd.o
LOAD C:\Users\luuph\AppData\Local\Temp\ccEJGvZG.o
LOAD C:\Users\luuph\AppData\Local\Temp\ccW2zIsf.o
LOAD C:\Users\luuph\AppData\Local\Temp\cc4kFi1R.o
LOAD C:\Users\luuph\AppData\Local\Temp\ccaC84Nz.o

.isr_vector     0x08000000       0xe4
                0x08000000                        . = ALIGN (0x4)
 *(.isr_vector)
 .isr_vector    0x08000000       0xe4 C:\Users\luuph\AppData\Local\Temp\ccEJGvZG.o
                0x08000000                g_pfnVectors
                0x080000e4                        . = ALIGN (0x4)

.text           0x080000e4     0x16c8
                0x080000e4                        . = ALIGN (0x4)
 *(.text)
 .text          0x080000e4      0x10c C:\Users\luuph\AppData\Local\Temp\ccW2PXJP.o
                0x080000e4                delay
                0x08000104                main
 .text          0x080001f0      0x2c4 C:\Users\luuph\AppData\Local\Temp\ccuuvjfd.o
                0x080001f0                Dio_ReadChannel
                0x0800023c                Dio_WriteChannel
                0x080002cc                Dio_ReadPort
                0x080002f0                Dio_WritePort
                0x0800031c                Dio_ReadChannelGroup
                0x08000358                Dio_WriteChannelGroup
                0x080003b0                Dio_GetVersionInfo
                0x080003e8                Dio_FlipChannel
                0x08000460                Dio_MaskedWritePort
 .text          0x080004b4       0x64 C:\Users\luuph\AppData\Local\Temp\ccEJGvZG.o
                0x080004b4                Reset_Handler
                0x08000510                HardFault_Handler
                0x08000510                SysTick_Handler
                0x08000510                PVD_IRQHandler
                0x08000510                PendSV_Handler
                0x08000510                NMI_Handler
                0x08000510                EXTI0_IRQHandler
                0x08000510                UsageFault_Handler
                0x08000510                DebugMon_Handler
                0x08000510                TIM3_IRQHandler
                0x08000510                Default_Handler
                0x08000510                EXTI15_10_IRQHandler
                0x08000510                MemManage_Handler
                0x08000510                SVC_Handler
                0x08000510                WWDG_IRQHandler
                0x08000510                TIM2_IRQHandler
                0x08000510                EXTI1_IRQHandler
                0x08000510                BusFault_Handler
                0x08000510                USART1_IRQHandler
 .text          0x08000518      0x808 C:\Users\luuph\AppData\Local\Temp\ccW2zIsf.o
                0x08000518                Port_Init
                0x080006f4                Port_SetPinDirection
                0x0800099c                Port_RefreshPortDirection
                0x08000b90                Port_GetVersionInfo
                0x08000ba2                Port_SetPinMode
 .text          0x08000d20      0x738 C:\Users\luuph\AppData\Local\Temp\cc4kFi1R.o
                0x08000d20                get_CCRx
                0x08000d64                Pwm_Init
                0x080011e4                Pwm_DeInit
                0x08001208                Pwm_SetDutyCycle
                0x080012c4                Pwm_SetPeriodAndDuty
                0x0800138c                Pwm_SetOutputToIdle
                0x080013f0                Pwm_GetOutputState
 .text          0x08001458      0x340 C:\Users\luuph\AppData\Local\Temp\ccaC84Nz.o
                0x08001458                Adc_Init
                0x080015c4                Adc_SetupResultBuffer
                0x08001600                Adc_DeInit
                0x0800163c                Adc_StartGroupConversion
                0x08001760                Adc_StopGroupConversion
 *(.text*)
 *(.rodata)
 .rodata        0x08001798       0x14 C:\Users\luuph\AppData\Local\Temp\ccW2PXJP.o
                0x08001798                Port_Configuration
 *(.rodata*)
                0x080017ac                        . = ALIGN (0x4)
                0x080017ac                        _etext = .

.glue_7         0x080017ac        0x0
 .glue_7        0x080017ac        0x0 linker stubs

.glue_7t        0x080017ac        0x0
 .glue_7t       0x080017ac        0x0 linker stubs

.vfp11_veneer   0x080017ac        0x0
 .vfp11_veneer  0x080017ac        0x0 linker stubs

.v4_bx          0x080017ac        0x0
 .v4_bx         0x080017ac        0x0 linker stubs

.iplt           0x080017ac        0x0
 .iplt          0x080017ac        0x0 C:\Users\luuph\AppData\Local\Temp\ccW2PXJP.o

.rel.dyn        0x080017ac        0x0
 .rel.iplt      0x080017ac        0x0 C:\Users\luuph\AppData\Local\Temp\ccW2PXJP.o

.data           0x20000000       0x6c load address 0x080017ac
                0x20000000                        . = ALIGN (0x4)
                0x20000000                        _sdata = .
 *(.data)
 .data          0x20000000       0x4c C:\Users\luuph\AppData\Local\Temp\ccW2PXJP.o
                0x20000000                Pwm_Configuration
                0x20000028                Adc_Configuration
 .data          0x2000004c       0x10 C:\Users\luuph\AppData\Local\Temp\ccuuvjfd.o
 .data          0x2000005c        0x0 C:\Users\luuph\AppData\Local\Temp\ccEJGvZG.o
 .data          0x2000005c       0x10 C:\Users\luuph\AppData\Local\Temp\ccW2zIsf.o
 .data          0x2000006c        0x0 C:\Users\luuph\AppData\Local\Temp\cc4kFi1R.o
 .data          0x2000006c        0x0 C:\Users\luuph\AppData\Local\Temp\ccaC84Nz.o
 *(.data*)
                0x2000006c                        . = ALIGN (0x4)
                0x2000006c                        _edata = .
                0x080017ac                        _sidata = LOADADDR (.data)

.igot.plt       0x2000006c        0x0 load address 0x08001818
 .igot.plt      0x2000006c        0x0 C:\Users\luuph\AppData\Local\Temp\ccW2PXJP.o

.bss            0x2000006c       0x90 load address 0x08001818
                0x2000006c                        . = ALIGN (0x4)
                0x2000006c                        _sbss = .
 *(.bss)
 .bss           0x2000006c        0xc C:\Users\luuph\AppData\Local\Temp\ccW2PXJP.o
                0x2000006c                Count
                0x20000070                adcValueGr0
                0x20000074                adcValueGr4
 .bss           0x20000078        0x4 C:\Users\luuph\AppData\Local\Temp\ccuuvjfd.o
 .bss           0x2000007c        0x0 C:\Users\luuph\AppData\Local\Temp\ccEJGvZG.o
 .bss           0x2000007c        0x0 C:\Users\luuph\AppData\Local\Temp\ccW2zIsf.o
 .bss           0x2000007c        0x0 C:\Users\luuph\AppData\Local\Temp\cc4kFi1R.o
 .bss           0x2000007c       0x80 C:\Users\luuph\AppData\Local\Temp\ccaC84Nz.o
 *(.bss*)
 *(COMMON)
                0x200000fc                        . = ALIGN (0x4)
                0x200000fc                        _ebss = .
                0x200000fc                        _sheap = .
                0x20005000                        _estack = (ORIGIN (RAM) + LENGTH (RAM))
OUTPUT(firmware.elf elf32-littlearm)
LOAD linker stubs

.debug_info     0x00000000     0x1a02
 .debug_info    0x00000000      0x739 C:\Users\luuph\AppData\Local\Temp\ccW2PXJP.o
 .debug_info    0x00000739      0x45d C:\Users\luuph\AppData\Local\Temp\ccuuvjfd.o
 .debug_info    0x00000b96      0x147 C:\Users\luuph\AppData\Local\Temp\ccEJGvZG.o
 .debug_info    0x00000cdd      0x38d C:\Users\luuph\AppData\Local\Temp\ccW2zIsf.o
 .debug_info    0x0000106a      0x4a4 C:\Users\luuph\AppData\Local\Temp\cc4kFi1R.o
 .debug_info    0x0000150e      0x4f4 C:\Users\luuph\AppData\Local\Temp\ccaC84Nz.o

.debug_abbrev   0x00000000      0x861
 .debug_abbrev  0x00000000      0x1b1 C:\Users\luuph\AppData\Local\Temp\ccW2PXJP.o
 .debug_abbrev  0x000001b1      0x153 C:\Users\luuph\AppData\Local\Temp\ccuuvjfd.o
 .debug_abbrev  0x00000304       0xe7 C:\Users\luuph\AppData\Local\Temp\ccEJGvZG.o
 .debug_abbrev  0x000003eb      0x17c C:\Users\luuph\AppData\Local\Temp\ccW2zIsf.o
 .debug_abbrev  0x00000567      0x16f C:\Users\luuph\AppData\Local\Temp\cc4kFi1R.o
 .debug_abbrev  0x000006d6      0x18b C:\Users\luuph\AppData\Local\Temp\ccaC84Nz.o

.debug_aranges  0x00000000       0xc0
 .debug_aranges
                0x00000000       0x20 C:\Users\luuph\AppData\Local\Temp\ccW2PXJP.o
 .debug_aranges
                0x00000020       0x20 C:\Users\luuph\AppData\Local\Temp\ccuuvjfd.o
 .debug_aranges
                0x00000040       0x20 C:\Users\luuph\AppData\Local\Temp\ccEJGvZG.o
 .debug_aranges
                0x00000060       0x20 C:\Users\luuph\AppData\Local\Temp\ccW2zIsf.o
 .debug_aranges
                0x00000080       0x20 C:\Users\luuph\AppData\Local\Temp\cc4kFi1R.o
 .debug_aranges
                0x000000a0       0x20 C:\Users\luuph\AppData\Local\Temp\ccaC84Nz.o

.debug_line     0x00000000     0x139b
 .debug_line    0x00000000      0x261 C:\Users\luuph\AppData\Local\Temp\ccW2PXJP.o
 .debug_line    0x00000261      0x2cd C:\Users\luuph\AppData\Local\Temp\ccuuvjfd.o
 .debug_line    0x0000052e      0x154 C:\Users\luuph\AppData\Local\Temp\ccEJGvZG.o
 .debug_line    0x00000682      0x4ea C:\Users\luuph\AppData\Local\Temp\ccW2zIsf.o
 .debug_line    0x00000b6c      0x4c2 C:\Users\luuph\AppData\Local\Temp\cc4kFi1R.o
 .debug_line    0x0000102e      0x36d C:\Users\luuph\AppData\Local\Temp\ccaC84Nz.o

.debug_str      0x00000000      0xa01
 .debug_str     0x00000000      0xa01 C:\Users\luuph\AppData\Local\Temp\ccW2PXJP.o
                                0x622 (size before relaxing)
 .debug_str     0x00000a01      0x360 C:\Users\luuph\AppData\Local\Temp\ccuuvjfd.o
 .debug_str     0x00000a01      0x18c C:\Users\luuph\AppData\Local\Temp\ccEJGvZG.o
 .debug_str     0x00000a01      0x315 C:\Users\luuph\AppData\Local\Temp\ccW2zIsf.o
 .debug_str     0x00000a01      0x379 C:\Users\luuph\AppData\Local\Temp\cc4kFi1R.o
 .debug_str     0x00000a01      0x44d C:\Users\luuph\AppData\Local\Temp\ccaC84Nz.o

.comment        0x00000000       0x45
 .comment       0x00000000       0x45 C:\Users\luuph\AppData\Local\Temp\ccW2PXJP.o
                                 0x46 (size before relaxing)
 .comment       0x00000045       0x46 C:\Users\luuph\AppData\Local\Temp\ccuuvjfd.o
 .comment       0x00000045       0x46 C:\Users\luuph\AppData\Local\Temp\ccEJGvZG.o
 .comment       0x00000045       0x46 C:\Users\luuph\AppData\Local\Temp\ccW2zIsf.o
 .comment       0x00000045       0x46 C:\Users\luuph\AppData\Local\Temp\cc4kFi1R.o
 .comment       0x00000045       0x46 C:\Users\luuph\AppData\Local\Temp\ccaC84Nz.o

.ARM.attributes
                0x00000000       0x2d
 .ARM.attributes
                0x00000000       0x2d C:\Users\luuph\AppData\Local\Temp\ccW2PXJP.o
 .ARM.attributes
                0x0000002d       0x2d C:\Users\luuph\AppData\Local\Temp\ccuuvjfd.o
 .ARM.attributes
                0x0000005a       0x2d C:\Users\luuph\AppData\Local\Temp\ccEJGvZG.o
 .ARM.attributes
                0x00000087       0x2d C:\Users\luuph\AppData\Local\Temp\ccW2zIsf.o
 .ARM.attributes
                0x000000b4       0x2d C:\Users\luuph\AppData\Local\Temp\cc4kFi1R.o
 .ARM.attributes
                0x000000e1       0x2d C:\Users\luuph\AppData\Local\Temp\ccaC84Nz.o

.debug_frame    0x00000000      0x4e0
 .debug_frame   0x00000000       0x54 C:\Users\luuph\AppData\Local\Temp\ccW2PXJP.o
 .debug_frame   0x00000054      0x178 C:\Users\luuph\AppData\Local\Temp\ccuuvjfd.o
 .debug_frame   0x000001cc       0x48 C:\Users\luuph\AppData\Local\Temp\ccEJGvZG.o
 .debug_frame   0x00000214       0xec C:\Users\luuph\AppData\Local\Temp\ccW2zIsf.o
 .debug_frame   0x00000300      0x110 C:\Users\luuph\AppData\Local\Temp\cc4kFi1R.o
 .debug_frame   0x00000410       0xd0 C:\Users\luuph\AppData\Local\Temp\ccaC84Nz.o
