
There are no discarded input sections

Memory Configuration

Name             Origin             Length             Attributes
FLASH            0x08000000         0x00010000         xr
RAM              0x20000000         0x00005000         xrw
*default*        0x00000000         0xffffffff

Linker script and memory map

LOAD C:\Users\luuph\AppData\Local\Temp\ccCRw7fs.o
LOAD C:\Users\luuph\AppData\Local\Temp\ccFT95Xc.o
LOAD C:\Users\luuph\AppData\Local\Temp\cc2ZxgRY.o
LOAD C:\Users\luuph\AppData\Local\Temp\ccFCQlaP.o
LOAD C:\Users\luuph\AppData\Local\Temp\ccQAXzHK.o
LOAD C:\Users\luuph\AppData\Local\Temp\ccJlAFLL.o

.isr_vector     0x08000000       0xe4
                0x08000000                        . = ALIGN (0x4)
 *(.isr_vector)
 .isr_vector    0x08000000       0xe4 C:\Users\luuph\AppData\Local\Temp\cc2ZxgRY.o
                0x08000000                g_pfnVectors
                0x080000e4                        . = ALIGN (0x4)

.text           0x080000e4     0x15c0
                0x080000e4                        . = ALIGN (0x4)
 *(.text)
 .text          0x080000e4       0xa0 C:\Users\luuph\AppData\Local\Temp\ccCRw7fs.o
                0x080000e4                delay
                0x08000104                main
 .text          0x08000184      0x2c4 C:\Users\luuph\AppData\Local\Temp\ccFT95Xc.o
                0x08000184                Dio_ReadChannel
                0x080001d0                Dio_WriteChannel
                0x08000260                Dio_ReadPort
                0x08000284                Dio_WritePort
                0x080002b0                Dio_ReadChannelGroup
                0x080002ec                Dio_WriteChannelGroup
                0x08000344                Dio_GetVersionInfo
                0x0800037c                Dio_FlipChannel
                0x080003f4                Dio_MaskedWritePort
 .text          0x08000448       0x64 C:\Users\luuph\AppData\Local\Temp\cc2ZxgRY.o
                0x08000448                Reset_Handler
                0x080004a4                HardFault_Handler
                0x080004a4                SysTick_Handler
                0x080004a4                PVD_IRQHandler
                0x080004a4                PendSV_Handler
                0x080004a4                NMI_Handler
                0x080004a4                EXTI0_IRQHandler
                0x080004a4                UsageFault_Handler
                0x080004a4                DebugMon_Handler
                0x080004a4                TIM3_IRQHandler
                0x080004a4                Default_Handler
                0x080004a4                EXTI15_10_IRQHandler
                0x080004a4                MemManage_Handler
                0x080004a4                SVC_Handler
                0x080004a4                WWDG_IRQHandler
                0x080004a4                TIM2_IRQHandler
                0x080004a4                EXTI1_IRQHandler
                0x080004a4                BusFault_Handler
                0x080004a4                USART1_IRQHandler
 .text          0x080004ac      0x808 C:\Users\luuph\AppData\Local\Temp\ccFCQlaP.o
                0x080004ac                Port_Init
                0x08000688                Port_SetPinDirection
                0x08000930                Port_RefreshPortDirection
                0x08000b24                Port_GetVersionInfo
                0x08000b36                Port_SetPinMode
 .text          0x08000cb4      0x738 C:\Users\luuph\AppData\Local\Temp\ccQAXzHK.o
                0x08000cb4                get_CCRx
                0x08000cf8                Pwm_Init
                0x08001178                Pwm_DeInit
                0x0800119c                Pwm_SetDutyCycle
                0x08001258                Pwm_SetPeriodAndDuty
                0x08001320                Pwm_SetOutputToIdle
                0x08001384                Pwm_GetOutputState
 .text          0x080013ec      0x2a8 C:\Users\luuph\AppData\Local\Temp\ccJlAFLL.o
                0x080013ec                Adc_Init
                0x080015e8                Adc_SetupResultBuffer
 *(.text*)
 *(.rodata)
 .rodata        0x08001694        0xf C:\Users\luuph\AppData\Local\Temp\ccCRw7fs.o
                0x08001694                Port_Configuration
 *(.rodata*)
                0x080016a4                        . = ALIGN (0x4)
 *fill*         0x080016a3        0x1 
                0x080016a4                        _etext = .

.glue_7         0x080016a4        0x0
 .glue_7        0x080016a4        0x0 linker stubs

.glue_7t        0x080016a4        0x0
 .glue_7t       0x080016a4        0x0 linker stubs

.vfp11_veneer   0x080016a4        0x0
 .vfp11_veneer  0x080016a4        0x0 linker stubs

.v4_bx          0x080016a4        0x0
 .v4_bx         0x080016a4        0x0 linker stubs

.iplt           0x080016a4        0x0
 .iplt          0x080016a4        0x0 C:\Users\luuph\AppData\Local\Temp\ccCRw7fs.o

.rel.dyn        0x080016a4        0x0
 .rel.iplt      0x080016a4        0x0 C:\Users\luuph\AppData\Local\Temp\ccCRw7fs.o

.data           0x20000000       0x5c load address 0x080016a4
                0x20000000                        . = ALIGN (0x4)
                0x20000000                        _sdata = .
 *(.data)
 .data          0x20000000       0x37 C:\Users\luuph\AppData\Local\Temp\ccCRw7fs.o
                0x20000000                Pwm_Configuration
                0x20000028                Adc_Channel
 *fill*         0x20000037        0x1 
 .data          0x20000038       0x10 C:\Users\luuph\AppData\Local\Temp\ccFT95Xc.o
 .data          0x20000048        0x0 C:\Users\luuph\AppData\Local\Temp\cc2ZxgRY.o
 .data          0x20000048       0x10 C:\Users\luuph\AppData\Local\Temp\ccFCQlaP.o
 .data          0x20000058        0x0 C:\Users\luuph\AppData\Local\Temp\ccQAXzHK.o
 .data          0x20000058        0x1 C:\Users\luuph\AppData\Local\Temp\ccJlAFLL.o
                0x20000058                ConversionMode
 *(.data*)
                0x2000005c                        . = ALIGN (0x4)
 *fill*         0x20000059        0x3 
                0x2000005c                        _edata = .
                0x080016a4                        _sidata = LOADADDR (.data)

.igot.plt       0x2000005c        0x0 load address 0x08001700
 .igot.plt      0x2000005c        0x0 C:\Users\luuph\AppData\Local\Temp\ccCRw7fs.o

.bss            0x2000005c       0x14 load address 0x08001700
                0x2000005c                        . = ALIGN (0x4)
                0x2000005c                        _sbss = .
 *(.bss)
 .bss           0x2000005c        0xa C:\Users\luuph\AppData\Local\Temp\ccCRw7fs.o
                0x2000005c                Count
                0x20000060                adcValue
 *fill*         0x20000066        0x2 
 .bss           0x20000068        0x4 C:\Users\luuph\AppData\Local\Temp\ccFT95Xc.o
 .bss           0x2000006c        0x0 C:\Users\luuph\AppData\Local\Temp\cc2ZxgRY.o
 .bss           0x2000006c        0x0 C:\Users\luuph\AppData\Local\Temp\ccFCQlaP.o
 .bss           0x2000006c        0x0 C:\Users\luuph\AppData\Local\Temp\ccQAXzHK.o
 .bss           0x2000006c        0x1 C:\Users\luuph\AppData\Local\Temp\ccJlAFLL.o
                0x2000006c                ResultAlignment
 *(.bss*)
 *(COMMON)
                0x20000070                        . = ALIGN (0x4)
 *fill*         0x2000006d        0x3 
                0x20000070                        _ebss = .
                0x20000070                        _sheap = .
                0x20005000                        _estack = (ORIGIN (RAM) + LENGTH (RAM))
OUTPUT(firmware.elf elf32-littlearm)
LOAD linker stubs

.debug_info     0x00000000     0x1674
 .debug_info    0x00000000      0x4cf C:\Users\luuph\AppData\Local\Temp\ccCRw7fs.o
 .debug_info    0x000004cf      0x45d C:\Users\luuph\AppData\Local\Temp\ccFT95Xc.o
 .debug_info    0x0000092c      0x147 C:\Users\luuph\AppData\Local\Temp\cc2ZxgRY.o
 .debug_info    0x00000a73      0x38d C:\Users\luuph\AppData\Local\Temp\ccFCQlaP.o
 .debug_info    0x00000e00      0x4a4 C:\Users\luuph\AppData\Local\Temp\ccQAXzHK.o
 .debug_info    0x000012a4      0x3d0 C:\Users\luuph\AppData\Local\Temp\ccJlAFLL.o

.debug_abbrev   0x00000000      0x833
 .debug_abbrev  0x00000000      0x1af C:\Users\luuph\AppData\Local\Temp\ccCRw7fs.o
 .debug_abbrev  0x000001af      0x153 C:\Users\luuph\AppData\Local\Temp\ccFT95Xc.o
 .debug_abbrev  0x00000302       0xe7 C:\Users\luuph\AppData\Local\Temp\cc2ZxgRY.o
 .debug_abbrev  0x000003e9      0x17c C:\Users\luuph\AppData\Local\Temp\ccFCQlaP.o
 .debug_abbrev  0x00000565      0x16f C:\Users\luuph\AppData\Local\Temp\ccQAXzHK.o
 .debug_abbrev  0x000006d4      0x15f C:\Users\luuph\AppData\Local\Temp\ccJlAFLL.o

.debug_aranges  0x00000000       0xc0
 .debug_aranges
                0x00000000       0x20 C:\Users\luuph\AppData\Local\Temp\ccCRw7fs.o
 .debug_aranges
                0x00000020       0x20 C:\Users\luuph\AppData\Local\Temp\ccFT95Xc.o
 .debug_aranges
                0x00000040       0x20 C:\Users\luuph\AppData\Local\Temp\cc2ZxgRY.o
 .debug_aranges
                0x00000060       0x20 C:\Users\luuph\AppData\Local\Temp\ccFCQlaP.o
 .debug_aranges
                0x00000080       0x20 C:\Users\luuph\AppData\Local\Temp\ccQAXzHK.o
 .debug_aranges
                0x000000a0       0x20 C:\Users\luuph\AppData\Local\Temp\ccJlAFLL.o

.debug_line     0x00000000     0x130a
 .debug_line    0x00000000      0x22a C:\Users\luuph\AppData\Local\Temp\ccCRw7fs.o
 .debug_line    0x0000022a      0x2cd C:\Users\luuph\AppData\Local\Temp\ccFT95Xc.o
 .debug_line    0x000004f7      0x154 C:\Users\luuph\AppData\Local\Temp\cc2ZxgRY.o
 .debug_line    0x0000064b      0x4ea C:\Users\luuph\AppData\Local\Temp\ccFCQlaP.o
 .debug_line    0x00000b35      0x4c2 C:\Users\luuph\AppData\Local\Temp\ccQAXzHK.o
 .debug_line    0x00000ff7      0x313 C:\Users\luuph\AppData\Local\Temp\ccJlAFLL.o

.debug_str      0x00000000      0x93b
 .debug_str     0x00000000      0x93b C:\Users\luuph\AppData\Local\Temp\ccCRw7fs.o
                                0x469 (size before relaxing)
 .debug_str     0x0000093b      0x360 C:\Users\luuph\AppData\Local\Temp\ccFT95Xc.o
 .debug_str     0x0000093b      0x18c C:\Users\luuph\AppData\Local\Temp\cc2ZxgRY.o
 .debug_str     0x0000093b      0x315 C:\Users\luuph\AppData\Local\Temp\ccFCQlaP.o
 .debug_str     0x0000093b      0x379 C:\Users\luuph\AppData\Local\Temp\ccQAXzHK.o
 .debug_str     0x0000093b      0x39c C:\Users\luuph\AppData\Local\Temp\ccJlAFLL.o

.comment        0x00000000       0x45
 .comment       0x00000000       0x45 C:\Users\luuph\AppData\Local\Temp\ccCRw7fs.o
                                 0x46 (size before relaxing)
 .comment       0x00000045       0x46 C:\Users\luuph\AppData\Local\Temp\ccFT95Xc.o
 .comment       0x00000045       0x46 C:\Users\luuph\AppData\Local\Temp\cc2ZxgRY.o
 .comment       0x00000045       0x46 C:\Users\luuph\AppData\Local\Temp\ccFCQlaP.o
 .comment       0x00000045       0x46 C:\Users\luuph\AppData\Local\Temp\ccQAXzHK.o
 .comment       0x00000045       0x46 C:\Users\luuph\AppData\Local\Temp\ccJlAFLL.o

.ARM.attributes
                0x00000000       0x2d
 .ARM.attributes
                0x00000000       0x2d C:\Users\luuph\AppData\Local\Temp\ccCRw7fs.o
 .ARM.attributes
                0x0000002d       0x2d C:\Users\luuph\AppData\Local\Temp\ccFT95Xc.o
 .ARM.attributes
                0x0000005a       0x2d C:\Users\luuph\AppData\Local\Temp\cc2ZxgRY.o
 .ARM.attributes
                0x00000087       0x2d C:\Users\luuph\AppData\Local\Temp\ccFCQlaP.o
 .ARM.attributes
                0x000000b4       0x2d C:\Users\luuph\AppData\Local\Temp\ccQAXzHK.o
 .ARM.attributes
                0x000000e1       0x2d C:\Users\luuph\AppData\Local\Temp\ccJlAFLL.o

.debug_frame    0x00000000      0x470
 .debug_frame   0x00000000       0x54 C:\Users\luuph\AppData\Local\Temp\ccCRw7fs.o
 .debug_frame   0x00000054      0x178 C:\Users\luuph\AppData\Local\Temp\ccFT95Xc.o
 .debug_frame   0x000001cc       0x48 C:\Users\luuph\AppData\Local\Temp\cc2ZxgRY.o
 .debug_frame   0x00000214       0xec C:\Users\luuph\AppData\Local\Temp\ccFCQlaP.o
 .debug_frame   0x00000300      0x110 C:\Users\luuph\AppData\Local\Temp\ccQAXzHK.o
 .debug_frame   0x00000410       0x60 C:\Users\luuph\AppData\Local\Temp\ccJlAFLL.o
